

Microchip MPLAB XC8 Assembler V2.10 build 88905656 
                                                                                               Mon Nov 04 23:35:53 2019

Microchip MPLAB XC8 C Compiler v2.10 (Free license) build 20190730164152 Og1 
     1                           	processor	18F4550
     2                           	fnconf	rparam,??,?,0
     3                           	opt	pw 120
     4                           	opt	flic
     5                           	psect	idataCOMRAM,global,class=CODE,delta=1,noexec
     6                           	psect	smallconst,global,reloc=2,class=SMALLCONST,delta=1,noexec
     7                           	psect	cinit,global,reloc=2,class=CODE,delta=1
     8                           	psect	bssCOMRAM,global,class=COMRAM,space=1,delta=1,noexec
     9                           	psect	dataCOMRAM,global,class=COMRAM,space=1,delta=1,noexec
    10                           	psect	cstackBANK0,global,class=BANK0,space=1,delta=1,noexec
    11                           	psect	cstackCOMRAM,global,class=COMRAM,space=1,delta=1,noexec
    12                           	psect	text0,global,reloc=2,class=CODE,delta=1
    13                           	psect	text1,global,reloc=2,class=CODE,delta=1,group=2
    14                           	psect	text2,global,reloc=2,class=CODE,delta=1,group=2
    15                           	psect	text3,global,reloc=2,class=CODE,delta=1,group=2
    16                           	psect	text4,global,reloc=2,class=CODE,delta=1,group=1
    17                           	psect	text5,global,reloc=2,class=CODE,delta=1,group=1
    18                           	psect	text6,global,reloc=2,class=CODE,delta=1
    19                           	psect	text7,global,reloc=2,class=CODE,delta=1
    20                           	psect	text8,global,reloc=2,class=CODE,delta=1,group=2
    21                           	psect	text9,global,reloc=2,class=CODE,delta=1,group=2
    22                           	psect	text10,global,reloc=2,class=CODE,delta=1,group=1
    23                           	psect	text11,global,reloc=2,class=CODE,delta=1,group=1
    24                           	psect	text12,global,reloc=2,class=CODE,delta=1,group=1
    25                           	psect	text13,global,reloc=2,class=CODE,delta=1,group=1
    26                           	psect	text14,global,reloc=2,class=CODE,delta=1,group=1
    27                           	psect	text15,global,reloc=2,class=CODE,delta=1,group=1
    28                           	psect	text16,global,reloc=2,class=CODE,delta=1,group=1
    29                           	psect	text17,global,reloc=2,class=CODE,delta=1,group=2
    30                           	psect	text18,global,reloc=2,class=CODE,delta=1,group=2
    31                           	psect	text19,global,reloc=2,class=CODE,delta=1,group=1
    32                           	psect	text20,global,reloc=2,class=CODE,delta=1,group=1
    33                           	psect	text21,global,reloc=2,class=CODE,delta=1
    34                           	psect	text22,global,reloc=2,class=CODE,delta=1
    35                           	psect	text23,global,reloc=2,class=CODE,delta=1
    36                           	psect	text24,global,reloc=2,class=CODE,delta=1
    37                           	psect	text25,global,reloc=2,class=CODE,delta=1
    38                           	psect	text26,global,reloc=2,class=CODE,delta=1
    39                           	psect	text27,global,reloc=2,class=CODE,delta=1
    40                           	psect	intsave_regs,global,class=BIGRAM,space=1,delta=1,noexec
    41                           	psect	rparam,global,class=COMRAM,space=1,delta=1,noexec
    42  0000                     
    43                           ; Version 2.10
    44                           ; Generated 31/07/2019 GMT
    45                           ; 
    46                           ; Copyright © 2019, Microchip Technology Inc. and its subsidiaries ("Microchip")
    47                           ; All rights reserved.
    48                           ; 
    49                           ; This software is developed by Microchip Technology Inc. and its subsidiaries ("Microch
      +                          ip").
    50                           ; 
    51                           ; Redistribution and use in source and binary forms, with or without modification, are
    52                           ; permitted provided that the following conditions are met:
    53                           ; 
    54                           ;     1. Redistributions of source code must retain the above copyright notice, this lis
      +                          t of
    55                           ;        conditions and the following disclaimer.
    56                           ; 
    57                           ;     2. Redistributions in binary form must reproduce the above copyright notice, this 
      +                          list
    58                           ;        of conditions and the following disclaimer in the documentation and/or other
    59                           ;        materials provided with the distribution.
    60                           ; 
    61                           ;     3. Microchip's name may not be used to endorse or promote products derived from th
      +                          is
    62                           ;        software without specific prior written permission.
    63                           ; 
    64                           ; THIS SOFTWARE IS PROVIDED BY MICROCHIP "AS IS" AND ANY EXPRESS OR IMPLIED WARRANTIES,
    65                           ; INCLUDING, BUT NOT LIMITED TO, THE IMPLIED WARRANTIES OF MERCHANTABILITY AND FITNESS F
      +                          OR
    66                           ; PURPOSE ARE DISCLAIMED.  IN NO EVENT SHALL MICROCHIP BE LIABLE FOR ANY DIRECT, INDIREC
      +                          T,
    67                           ; INCIDENTAL, SPECIAL, EXEMPLARY, OR CONSEQUENTIAL DAMAGES (INCLUDING BUT NOT LIMITED TO
    68                           ; PROCUREMENT OF SUBSTITUTE GOODS OR SERVICES; LOSS OF USE, DATA OR PROFITS; OR BUSINESS
    69                           ; INTERRUPTION) HOWSOEVER CAUSED AND ON ANY THEORY OF LIABILITY, WHETHER IN CONTRACT, ST
      +                          RICT
    70                           ; LIABILITY, OR TORT (INCLUDING NEGLIGENCE OR OTHERWISE) ARISING IN ANY WAY OUT OF THE U
      +                          SE OF
    71                           ; THIS SOFTWARE, EVEN IF ADVISED OF THE POSSIBILITY OF SUCH DAMAGE.
    72                           ; 
    73                           ; 
    74                           ; Code-generator required, PIC18F4550 Definitions
    75                           ; 
    76                           ; SFR Addresses
    77  0000                     
    78                           	psect	idataCOMRAM
    79  002740                     __pidataCOMRAM:
    80                           	opt callstack 0
    81                           
    82                           ;initializer for _keypad
    83  002740  37                 	db	55
    84  002741  38                 	db	56
    85  002742  39                 	db	57
    86  002743  2F                 	db	47
    87  002744  34                 	db	52
    88  002745  35                 	db	53
    89  002746  36                 	db	54
    90  002747  2A                 	db	42
    91  002748  31                 	db	49
    92  002749  32                 	db	50
    93  00274A  33                 	db	51
    94  00274B  2D                 	db	45
    95  00274C  20                 	db	32
    96  00274D  30                 	db	48
    97  00274E  3D                 	db	61
    98  00274F  2B                 	db	43
    99  0000                     _PORTB	set	3969
   100  0000                     _LATB	set	3978
   101  0000                     _TRISB	set	3987
   102  0000                     _LATD	set	3980
   103  0000                     _TRISD	set	3989
   104  0000                     _OSCCON	set	4051
   105  0000                     _LATD1	set	31841
   106  0000                     _LATD0	set	31840
   107  0000                     _RBPU	set	32655
   108                           
   109                           	psect	smallconst
   110  000800                     __psmallconst:
   111                           	opt callstack 0
   112  000800  00                 	db	0
   113  000801                     STR_1:
   114  000801  43                 	db	67	;'C'
   115  000802  61                 	db	97	;'a'
   116  000803  6C                 	db	108	;'l'
   117  000804  63                 	db	99	;'c'
   118  000805  75                 	db	117	;'u'
   119  000806  6C                 	db	108	;'l'
   120  000807  61                 	db	97	;'a'
   121  000808  64                 	db	100	;'d'
   122  000809  6F                 	db	111	;'o'
   123  00080A  72                 	db	114	;'r'
   124  00080B  61                 	db	97	;'a'
   125  00080C  00                 	db	0
   126  00080D                     STR_2:
   127  00080D  2B                 	db	43
   128  00080E  2C                 	db	44
   129  00080F  2D                 	db	45
   130  000810  2C                 	db	44
   131  000811  2A                 	db	42
   132  000812  2C                 	db	44
   133  000813  2F                 	db	47
   134  000814  00                 	db	0
   135  000815                     STR_3:
   136  000815  45                 	db	69	;'E'
   137  000816  52                 	db	82	;'R'
   138  000817  52                 	db	82	;'R'
   139  000818  4F                 	db	79	;'O'
   140  000819  52                 	db	82	;'R'
   141  00081A  00                 	db	0
   142  00081B                     STR_4:
   143  00081B  2E                 	db	46
   144  00081C  00                 	db	0
   145                           
   146                           ; #config settings
   147  00081D  00                 	db	0	; dummy byte at the end
   148  0000                     
   149                           	psect	cinit
   150  0026E0                     __pcinit:
   151                           	opt callstack 0
   152  0026E0                     start_initialization:
   153                           	opt callstack 0
   154  0026E0                     __initialization:
   155                           	opt callstack 0
   156                           
   157                           ; Initialize objects allocated to COMRAM (16 bytes)
   158                           ; load TBLPTR registers with __pidataCOMRAM
   159  0026E0  0E40               	movlw	low __pidataCOMRAM
   160  0026E2  6EF6               	movwf	tblptrl,c
   161  0026E4  0E27               	movlw	high __pidataCOMRAM
   162  0026E6  6EF7               	movwf	tblptrh,c
   163  0026E8  0E00               	movlw	low (__pidataCOMRAM shr (0+16))
   164  0026EA  6EF8               	movwf	tblptru,c
   165  0026EC  EE00  F047         	lfsr	0,__pdataCOMRAM
   166  0026F0  EE10 F010          	lfsr	1,16
   167  0026F4                     copy_data0:
   168  0026F4  0009               	tblrd		*+
   169  0026F6  CFF5 FFEE          	movff	tablat,postinc0
   170  0026FA  50E5               	movf	postdec1,w,c
   171  0026FC  50E1               	movf	fsr1l,w,c
   172  0026FE  E1FA               	bnz	copy_data0
   173                           
   174                           ; Clear objects allocated to COMRAM (3 bytes)
   175  002700  6A59               	clrf	(__pbssCOMRAM+2)& (0+255),c
   176  002702  6A58               	clrf	(__pbssCOMRAM+1)& (0+255),c
   177  002704  6A57               	clrf	__pbssCOMRAM& (0+255),c
   178  002706                     end_of_initialization:
   179                           	opt callstack 0
   180  002706                     __end_of__initialization:
   181                           	opt callstack 0
   182  002706  0E00               	movlw	low (__Lmediumconst shr (0+16))
   183  002708  6EF8               	movwf	tblptru,c
   184  00270A  0100               	movlb	0
   185  00270C  EF84  F008         	goto	_main	;jump to C main() function
   186                           
   187                           	psect	bssCOMRAM
   188  000057                     __pbssCOMRAM:
   189                           	opt callstack 0
   190  000057                     _temp_col:
   191                           	opt callstack 0
   192  000057                     	ds	1
   193  000058                     _rowloc:
   194                           	opt callstack 0
   195  000058                     	ds	1
   196  000059                     _col_loc:
   197                           	opt callstack 0
   198  000059                     	ds	1
   199                           
   200                           	psect	dataCOMRAM
   201  000047                     __pdataCOMRAM:
   202                           	opt callstack 0
   203  000047                     _keypad:
   204                           	opt callstack 0
   205  000047                     	ds	16
   206                           
   207                           	psect	cstackBANK0
   208  000060                     __pcstackBANK0:
   209                           	opt callstack 0
   210  000060                     main@op1:
   211                           	opt callstack 0
   212                           
   213                           ; 10 bytes @ 0x0
   214  000060                     	ds	10
   215  00006A                     main@op2:
   216                           	opt callstack 0
   217                           
   218                           ; 10 bytes @ 0xA
   219  00006A                     	ds	10
   220  000074                     main@result_output:
   221                           	opt callstack 0
   222                           
   223                           ; 10 bytes @ 0x14
   224  000074                     	ds	10
   225  00007E                     main@div_result:
   226                           	opt callstack 0
   227                           
   228                           ; 4 bytes @ 0x1E
   229  00007E                     	ds	4
   230  000082                     main@operator:
   231                           	opt callstack 0
   232                           
   233                           ; 1 bytes @ 0x22
   234  000082                     	ds	1
   235  000083                     main@flag:
   236                           	opt callstack 0
   237                           
   238                           ; 1 bytes @ 0x23
   239  000083                     	ds	1
   240  000084                     main@index:
   241                           	opt callstack 0
   242                           
   243                           ; 2 bytes @ 0x24
   244  000084                     	ds	2
   245  000086                     main@result:
   246                           	opt callstack 0
   247                           
   248                           ; 4 bytes @ 0x26
   249  000086                     	ds	4
   250  00008A                     main@number1:
   251                           	opt callstack 0
   252                           
   253                           ; 4 bytes @ 0x2A
   254  00008A                     	ds	4
   255  00008E                     main@number2:
   256                           	opt callstack 0
   257                           
   258                           ; 4 bytes @ 0x2E
   259  00008E                     	ds	4
   260  000092                     main@key_pressed:
   261                           	opt callstack 0
   262                           
   263                           ; 1 bytes @ 0x32
   264  000092                     	ds	1
   265                           
   266                           	psect	cstackCOMRAM
   267  000001                     __pcstackCOMRAM:
   268                           	opt callstack 0
   269  000001                     ??_isdigit:
   270  000001                     ?___lwdiv:
   271                           	opt callstack 0
   272  000001                     ?___lwmod:
   273                           	opt callstack 0
   274  000001                     ?___fladd:
   275                           	opt callstack 0
   276  000001                     ?___flmul:
   277                           	opt callstack 0
   278  000001                     ?___lmul:
   279                           	opt callstack 0
   280  000001                     ?___lldiv:
   281                           	opt callstack 0
   282  000001                     ?___fltol:
   283                           	opt callstack 0
   284  000001                     ?___llmod:
   285                           	opt callstack 0
   286  000001                     MSdelay@val:
   287                           	opt callstack 0
   288  000001                     ___lwdiv@dividend:
   289                           	opt callstack 0
   290  000001                     ___lwmod@dividend:
   291                           	opt callstack 0
   292  000001                     memset@p1:
   293                           	opt callstack 0
   294  000001                     ___lmul@multiplier:
   295                           	opt callstack 0
   296  000001                     ___lldiv@dividend:
   297                           	opt callstack 0
   298  000001                     ___fltol@f1:
   299                           	opt callstack 0
   300  000001                     ___llmod@dividend:
   301                           	opt callstack 0
   302  000001                     ___fladd@b:
   303                           	opt callstack 0
   304  000001                     ___flmul@b:
   305                           	opt callstack 0
   306                           
   307                           ; 4 bytes @ 0x0
   308  000001                     	ds	1
   309  000002                     _isdigit$609:
   310                           	opt callstack 0
   311                           
   312                           ; 1 bytes @ 0x1
   313  000002                     	ds	1
   314  000003                     isdigit@c:
   315                           	opt callstack 0
   316  000003                     MSdelay@i:
   317                           	opt callstack 0
   318  000003                     ___lwdiv@divisor:
   319                           	opt callstack 0
   320  000003                     ___lwmod@divisor:
   321                           	opt callstack 0
   322  000003                     memset@c:
   323                           	opt callstack 0
   324                           
   325                           ; 2 bytes @ 0x2
   326  000003                     	ds	2
   327  000005                     ??___fltol:
   328  000005                     ___lwmod@counter:
   329                           	opt callstack 0
   330  000005                     MSdelay@j:
   331                           	opt callstack 0
   332  000005                     ___lwdiv@quotient:
   333                           	opt callstack 0
   334  000005                     memset@n:
   335                           	opt callstack 0
   336  000005                     ___lmul@multiplicand:
   337                           	opt callstack 0
   338  000005                     ___lldiv@divisor:
   339                           	opt callstack 0
   340  000005                     ___llmod@divisor:
   341                           	opt callstack 0
   342  000005                     ___fladd@a:
   343                           	opt callstack 0
   344  000005                     ___flmul@a:
   345                           	opt callstack 0
   346                           
   347                           ; 4 bytes @ 0x4
   348  000005                     	ds	2
   349  000007                     ??_LCD_Command:
   350  000007                     ??_LCD_Char:
   351  000007                     ___lwdiv@counter:
   352                           	opt callstack 0
   353  000007                     memset@p:
   354                           	opt callstack 0
   355                           
   356                           ; 2 bytes @ 0x6
   357  000007                     	ds	1
   358  000008                     LCD_Command@cmd:
   359                           	opt callstack 0
   360  000008                     LCD_Char@dat:
   361                           	opt callstack 0
   362  000008                     utoa@buf:
   363                           	opt callstack 0
   364                           
   365                           ; 2 bytes @ 0x7
   366  000008                     	ds	1
   367  000009                     ??___fladd:
   368  000009                     ??___flmul:
   369  000009                     ___fltol@sign1:
   370                           	opt callstack 0
   371  000009                     ___llmod@counter:
   372                           	opt callstack 0
   373  000009                     LCD_String@msg:
   374                           	opt callstack 0
   375  000009                     ___lmul@product:
   376                           	opt callstack 0
   377  000009                     ___lldiv@quotient:
   378                           	opt callstack 0
   379                           
   380                           ; 4 bytes @ 0x8
   381  000009                     	ds	1
   382  00000A                     ___fltol@exp1:
   383                           	opt callstack 0
   384  00000A                     utoa@val:
   385                           	opt callstack 0
   386                           
   387                           ; 2 bytes @ 0x9
   388  00000A                     	ds	1
   389  00000B                     ?___xxtofl:
   390                           	opt callstack 0
   391  00000B                     LCD_String_xy@pos:
   392                           	opt callstack 0
   393  00000B                     ___xxtofl@val:
   394                           	opt callstack 0
   395                           
   396                           ; 4 bytes @ 0xA
   397  00000B                     	ds	1
   398  00000C                     LCD_String_xy@msg:
   399                           	opt callstack 0
   400  00000C                     utoa@base:
   401                           	opt callstack 0
   402                           
   403                           ; 2 bytes @ 0xB
   404  00000C                     	ds	1
   405  00000D                     ?_atol:
   406                           	opt callstack 0
   407  00000D                     ___lldiv@counter:
   408                           	opt callstack 0
   409  00000D                     ___fladd@signs:
   410                           	opt callstack 0
   411  00000D                     ___flmul@sign:
   412                           	opt callstack 0
   413  00000D                     atol@s:
   414                           	opt callstack 0
   415                           
   416                           ; 2 bytes @ 0xC
   417  00000D                     	ds	1
   418  00000E                     LCD_String_xy@row:
   419                           	opt callstack 0
   420  00000E                     ___fladd@aexp:
   421                           	opt callstack 0
   422  00000E                     utoa@v:
   423                           	opt callstack 0
   424  00000E                     ultoa@buf:
   425                           	opt callstack 0
   426  00000E                     ___flmul@grs:
   427                           	opt callstack 0
   428                           
   429                           ; 4 bytes @ 0xD
   430  00000E                     	ds	1
   431  00000F                     ??___xxtofl:
   432  00000F                     LCD_String_xy@location:
   433                           	opt callstack 0
   434  00000F                     ___fladd@bexp:
   435                           	opt callstack 0
   436                           
   437                           ; 1 bytes @ 0xE
   438  00000F                     	ds	1
   439  000010                     ___fladd@grs:
   440                           	opt callstack 0
   441  000010                     utoa@c:
   442                           	opt callstack 0
   443  000010                     ultoa@val:
   444                           	opt callstack 0
   445                           
   446                           ; 4 bytes @ 0xF
   447  000010                     	ds	1
   448  000011                     ??_atol:
   449  000011                     itoa@buf:
   450                           	opt callstack 0
   451                           
   452                           ; 2 bytes @ 0x10
   453  000011                     	ds	1
   454  000012                     ___flmul@aexp:
   455                           	opt callstack 0
   456                           
   457                           ; 1 bytes @ 0x11
   458  000012                     	ds	1
   459  000013                     ___flmul@bexp:
   460                           	opt callstack 0
   461  000013                     ___xxtofl@sign:
   462                           	opt callstack 0
   463  000013                     itoa@val:
   464                           	opt callstack 0
   465                           
   466                           ; 2 bytes @ 0x12
   467  000013                     	ds	1
   468  000014                     ___xxtofl@exp:
   469                           	opt callstack 0
   470  000014                     ultoa@base:
   471                           	opt callstack 0
   472  000014                     ___flmul@prod:
   473                           	opt callstack 0
   474                           
   475                           ; 4 bytes @ 0x13
   476  000014                     	ds	1
   477  000015                     atol@sign:
   478                           	opt callstack 0
   479  000015                     itoa@base:
   480                           	opt callstack 0
   481  000015                     ___xxtofl@arg:
   482                           	opt callstack 0
   483                           
   484                           ; 4 bytes @ 0x14
   485  000015                     	ds	1
   486  000016                     atol@a:
   487                           	opt callstack 0
   488  000016                     ultoa@v:
   489                           	opt callstack 0
   490                           
   491                           ; 4 bytes @ 0x15
   492  000016                     	ds	1
   493  000017                     
   494                           ; 1 bytes @ 0x16
   495  000017                     	ds	1
   496  000018                     ___flmul@temp:
   497                           	opt callstack 0
   498                           
   499                           ; 2 bytes @ 0x17
   500  000018                     	ds	1
   501  000019                     ?___fldiv:
   502                           	opt callstack 0
   503  000019                     ?___flsub:
   504                           	opt callstack 0
   505  000019                     ___flsub@b:
   506                           	opt callstack 0
   507  000019                     ___fldiv@b:
   508                           	opt callstack 0
   509                           
   510                           ; 4 bytes @ 0x18
   511  000019                     	ds	1
   512  00001A                     atol@c:
   513                           	opt callstack 0
   514  00001A                     ultoa@c:
   515                           	opt callstack 0
   516                           
   517                           ; 1 bytes @ 0x19
   518  00001A                     	ds	1
   519  00001B                     ltoa@buf:
   520                           	opt callstack 0
   521                           
   522                           ; 2 bytes @ 0x1A
   523  00001B                     	ds	2
   524  00001D                     ___flsub@a:
   525                           	opt callstack 0
   526  00001D                     ___fldiv@a:
   527                           	opt callstack 0
   528  00001D                     ltoa@val:
   529                           	opt callstack 0
   530                           
   531                           ; 4 bytes @ 0x1C
   532  00001D                     	ds	4
   533  000021                     ??___fldiv:
   534  000021                     ltoa@base:
   535                           	opt callstack 0
   536  000021                     display_float@div_result:
   537                           	opt callstack 0
   538                           
   539                           ; 4 bytes @ 0x20
   540  000021                     	ds	2
   541  000023                     
   542                           ; 1 bytes @ 0x22
   543  000023                     	ds	2
   544  000025                     ___fldiv@rem:
   545                           	opt callstack 0
   546  000025                     display_float@output:
   547                           	opt callstack 0
   548                           
   549                           ; 15 bytes @ 0x24
   550  000025                     	ds	4
   551  000029                     ___fldiv@sign:
   552                           	opt callstack 0
   553                           
   554                           ; 1 bytes @ 0x28
   555  000029                     	ds	1
   556  00002A                     ___fldiv@new_exp:
   557                           	opt callstack 0
   558                           
   559                           ; 2 bytes @ 0x29
   560  00002A                     	ds	2
   561  00002C                     ___fldiv@grs:
   562                           	opt callstack 0
   563                           
   564                           ; 4 bytes @ 0x2B
   565  00002C                     	ds	4
   566  000030                     ___fldiv@bexp:
   567                           	opt callstack 0
   568                           
   569                           ; 1 bytes @ 0x2F
   570  000030                     	ds	1
   571  000031                     ___fldiv@aexp:
   572                           	opt callstack 0
   573                           
   574                           ; 1 bytes @ 0x30
   575  000031                     	ds	3
   576  000034                     display_float@output1:
   577                           	opt callstack 0
   578                           
   579                           ; 15 bytes @ 0x33
   580  000034                     	ds	15
   581  000043                     display_float@temp:
   582                           	opt callstack 0
   583                           
   584                           ; 4 bytes @ 0x42
   585  000043                     	ds	4
   586  000047                     
   587                           ; 1 bytes @ 0x46
   588 ;;
   589 ;;Main: autosize = 0, tempsize = 0, incstack = 0, save=0
   590 ;;
   591 ;; *************** function _main *****************
   592 ;; Defined at:
   593 ;;		line 11 in file "Calculadora.c"
   594 ;; Parameters:    Size  Location     Type
   595 ;;		None
   596 ;; Auto vars:     Size  Location     Type
   597 ;;  result_outpu   10   20[BANK0 ] unsigned char [10]
   598 ;;  op2            10   10[BANK0 ] unsigned char [10]
   599 ;;  op1            10    0[BANK0 ] unsigned char [10]
   600 ;;  number2         4   46[BANK0 ] unsigned long 
   601 ;;  number1         4   42[BANK0 ] unsigned long 
   602 ;;  result          4   38[BANK0 ] unsigned long 
   603 ;;  div_result      4   30[BANK0 ] unsigned long 
   604 ;;  index           2   36[BANK0 ] unsigned int 
   605 ;;  key_pressed     1   50[BANK0 ] unsigned char 
   606 ;;  flag            1   35[BANK0 ] unsigned char 
   607 ;;  operator        1   34[BANK0 ] unsigned char 
   608 ;; Return value:  Size  Location     Type
   609 ;;                  2   40[None  ] int 
   610 ;; Registers used:
   611 ;;		wreg, fsr2l, fsr2h, status,2, status,0, tblptrl, tblptrh, tblptru, prodl, prodh, cstack
   612 ;; Tracked objects:
   613 ;;		On entry : 0/0
   614 ;;		On exit  : 0/0
   615 ;;		Unchanged: 0/0
   616 ;; Data sizes:     COMRAM   BANK0   BANK1   BANK2   BANK3   BANK4   BANK5   BANK6   BANK7
   617 ;;      Params:         0       0       0       0       0       0       0       0       0
   618 ;;      Locals:         0      51       0       0       0       0       0       0       0
   619 ;;      Temps:          0       0       0       0       0       0       0       0       0
   620 ;;      Totals:         0      51       0       0       0       0       0       0       0
   621 ;;Total ram usage:       51 bytes
   622 ;; Hardware stack levels required when called:    4
   623 ;; This function calls:
   624 ;;		_LCD_Clear
   625 ;;		_LCD_Command
   626 ;;		_LCD_Init
   627 ;;		_LCD_String
   628 ;;		_LCD_String_xy
   629 ;;		_MSdelay
   630 ;;		___fldiv
   631 ;;		___lmul
   632 ;;		___xxtofl
   633 ;;		_atol
   634 ;;		_display_float
   635 ;;		_keyfind
   636 ;;		_ltoa
   637 ;;		_memset
   638 ;; This function is called by:
   639 ;;		Startup code after reset
   640 ;; This function uses a non-reentrant model
   641 ;;
   642                           
   643                           	psect	text0
   644  001108                     __ptext0:
   645                           	opt callstack 0
   646  001108                     _main:
   647                           	opt callstack 27
   648  001108                     
   649                           ;Calculadora.c: 13: unsigned int index=0;
   650  001108  0E00               	movlw	0
   651  00110A  0100               	movlb	0	; () banked
   652  00110C  6F85               	movwf	(main@index+1)& (0+255),b
   653  00110E  0E00               	movlw	0
   654  001110  6F84               	movwf	main@index& (0+255),b
   655                           
   656                           ;Calculadora.c: 16: double div_result=0;
   657  001112  0E00               	movlw	0
   658  001114  6F7E               	movwf	main@div_result& (0+255),b
   659  001116  0E00               	movlw	0
   660  001118  6F7F               	movwf	(main@div_result+1)& (0+255),b
   661  00111A  0E00               	movlw	0
   662  00111C  6F80               	movwf	(main@div_result+2)& (0+255),b
   663  00111E  0E00               	movlw	0
   664  001120  6F81               	movwf	(main@div_result+3)& (0+255),b
   665                           
   666                           ;Calculadora.c: 17: unsigned char key_pressed,operator,flag=0;
   667  001122  0E00               	movlw	0
   668  001124  6F83               	movwf	main@flag& (0+255),b
   669                           
   670                           ;Calculadora.c: 18: unsigned char op1[10],op2[10];;Calculadora.c: 19: unsigned char resu
      +                          lt_output[10];;Calculadora.c: 21: OSCCON = 0x72;
   671  001126  0E72               	movlw	114
   672  001128  6ED3               	movwf	211,c	;volatile
   673  00112A                     
   674                           ; BSR set to: 0
   675                           ;Calculadora.c: 22: RBPU=0;
   676  00112A  9EF1               	bcf	4081,7,c	;volatile
   677  00112C                     
   678                           ; BSR set to: 0
   679                           ;Calculadora.c: 23: LCD_Init();
   680  00112C  EC88  F013         	call	_LCD_Init	;wreg free
   681  001130                     
   682                           ;Calculadora.c: 24: LCD_String_xy(1,0,"Calculadora");
   683  001130  0E00               	movlw	0
   684  001132  6E0B               	movwf	LCD_String_xy@pos^0,c
   685  001134  0E01               	movlw	low STR_1
   686  001136  6E0C               	movwf	LCD_String_xy@msg^0,c
   687  001138  0E08               	movlw	high STR_1
   688  00113A  6E0D               	movwf	(LCD_String_xy@msg+1)^0,c
   689  00113C  0E01               	movlw	1
   690  00113E  EC1B  F013         	call	_LCD_String_xy
   691  001142                     
   692                           ;Calculadora.c: 25: LCD_String_xy(2,0,"+,-,*,/");
   693  001142  0E00               	movlw	0
   694  001144  6E0B               	movwf	LCD_String_xy@pos^0,c
   695  001146  0E0D               	movlw	low STR_2
   696  001148  6E0C               	movwf	LCD_String_xy@msg^0,c
   697  00114A  0E08               	movlw	high STR_2
   698  00114C  6E0D               	movwf	(LCD_String_xy@msg+1)^0,c
   699  00114E  0E02               	movlw	2
   700  001150  EC1B  F013         	call	_LCD_String_xy
   701  001154                     
   702                           ;Calculadora.c: 26: MSdelay(2000);
   703  001154  0E07               	movlw	7
   704  001156  6E02               	movwf	(MSdelay@val+1)^0,c
   705  001158  0ED0               	movlw	208
   706  00115A  6E01               	movwf	MSdelay@val^0,c
   707  00115C  ECB1  F012         	call	_MSdelay	;wreg free
   708  001160                     
   709                           ;Calculadora.c: 27: LCD_Clear();
   710  001160  ECA8  F013         	call	_LCD_Clear	;wreg free
   711  001164                     
   712                           ;Calculadora.c: 28: LCD_Command(0x80);
   713  001164  0E80               	movlw	128
   714  001166  EC8B  F012         	call	_LCD_Command
   715  00116A                     l3100:
   716                           
   717                           ;Calculadora.c: 30: {;Calculadora.c: 31: key_pressed= keyfind();
   718  00116A  EC2C  F00C         	call	_keyfind	;wreg free
   719  00116E  0100               	movlb	0	; () banked
   720  001170  6F92               	movwf	main@key_pressed& (0+255),b
   721  001172                     
   722                           ; BSR set to: 0
   723                           ;Calculadora.c: 32: MSdelay(30);
   724  001172  0E00               	movlw	0
   725  001174  6E02               	movwf	(MSdelay@val+1)^0,c
   726  001176  0E1E               	movlw	30
   727  001178  6E01               	movwf	MSdelay@val^0,c
   728  00117A  ECB1  F012         	call	_MSdelay	;wreg free
   729  00117E                     
   730                           ;Calculadora.c: 33: if(key_pressed!=' ')
   731  00117E  0E20               	movlw	32
   732  001180  0100               	movlb	0	; () banked
   733  001182  1992               	xorwf	main@key_pressed& (0+255),w,b
   734  001184  B4D8               	btfsc	status,2,c
   735  001186  EFC7  F008         	goto	u3141
   736  00118A  EFC9  F008         	goto	u3140
   737  00118E                     u3141:
   738  00118E  EF21  F00A         	goto	l3174
   739  001192                     u3140:
   740  001192                     
   741                           ; BSR set to: 0
   742                           ;Calculadora.c: 34: {;Calculadora.c: 36: if(key_pressed!='+' && key_pressed!='-' && key_
      +                          pressed!='/' && key_pressed!='*' && key_pressed!='=')
   743  001192  0E2B               	movlw	43
   744  001194  1992               	xorwf	main@key_pressed& (0+255),w,b
   745  001196  B4D8               	btfsc	status,2,c
   746  001198  EFD0  F008         	goto	u3151
   747  00119C  EFD2  F008         	goto	u3150
   748  0011A0                     u3151:
   749  0011A0  EF14  F009         	goto	l3126
   750  0011A4                     u3150:
   751  0011A4                     
   752                           ; BSR set to: 0
   753  0011A4  0E2D               	movlw	45
   754  0011A6  1992               	xorwf	main@key_pressed& (0+255),w,b
   755  0011A8  B4D8               	btfsc	status,2,c
   756  0011AA  EFD9  F008         	goto	u3161
   757  0011AE  EFDB  F008         	goto	u3160
   758  0011B2                     u3161:
   759  0011B2  EF14  F009         	goto	l3126
   760  0011B6                     u3160:
   761  0011B6                     
   762                           ; BSR set to: 0
   763  0011B6  0E2F               	movlw	47
   764  0011B8  1992               	xorwf	main@key_pressed& (0+255),w,b
   765  0011BA  B4D8               	btfsc	status,2,c
   766  0011BC  EFE2  F008         	goto	u3171
   767  0011C0  EFE4  F008         	goto	u3170
   768  0011C4                     u3171:
   769  0011C4  EF14  F009         	goto	l3126
   770  0011C8                     u3170:
   771  0011C8                     
   772                           ; BSR set to: 0
   773  0011C8  0E2A               	movlw	42
   774  0011CA  1992               	xorwf	main@key_pressed& (0+255),w,b
   775  0011CC  B4D8               	btfsc	status,2,c
   776  0011CE  EFEB  F008         	goto	u3181
   777  0011D2  EFED  F008         	goto	u3180
   778  0011D6                     u3181:
   779  0011D6  EF14  F009         	goto	l3126
   780  0011DA                     u3180:
   781  0011DA                     
   782                           ; BSR set to: 0
   783  0011DA  0E3D               	movlw	61
   784  0011DC  1992               	xorwf	main@key_pressed& (0+255),w,b
   785  0011DE  B4D8               	btfsc	status,2,c
   786  0011E0  EFF4  F008         	goto	u3191
   787  0011E4  EFF6  F008         	goto	u3190
   788  0011E8                     u3191:
   789  0011E8  EF14  F009         	goto	l3126
   790  0011EC                     u3190:
   791  0011EC                     
   792                           ; BSR set to: 0
   793                           ;Calculadora.c: 37: {;Calculadora.c: 38: if(flag==0)
   794  0011EC  5183               	movf	main@flag& (0+255),w,b
   795  0011EE  A4D8               	btfss	status,2,c
   796  0011F0  EFFC  F008         	goto	u3201
   797  0011F4  EFFE  F008         	goto	u3200
   798  0011F8                     u3201:
   799  0011F8  EF0A  F009         	goto	l3122
   800  0011FC                     u3200:
   801  0011FC                     
   802                           ; BSR set to: 0
   803                           ;Calculadora.c: 39: {;Calculadora.c: 40: op1[index] = key_pressed;
   804  0011FC  0E60               	movlw	low main@op1
   805  0011FE  2584               	addwf	main@index& (0+255),w,b
   806  001200  6ED9               	movwf	fsr2l,c
   807  001202  0E00               	movlw	high main@op1
   808  001204  2185               	addwfc	(main@index+1)& (0+255),w,b
   809  001206  6EDA               	movwf	fsr2h,c
   810  001208  C092  FFDF         	movff	main@key_pressed,indf2
   811  00120C                     l3120:
   812                           
   813                           ; BSR set to: 0
   814                           ;Calculadora.c: 41: index++;
   815  00120C  4B84               	infsnz	main@index& (0+255),f,b
   816  00120E  2B85               	incf	(main@index+1)& (0+255),f,b
   817                           
   818                           ;Calculadora.c: 42: }
   819  001210  EF14  F009         	goto	l3126
   820  001214                     l3122:
   821                           
   822                           ; BSR set to: 0
   823                           ;Calculadora.c: 43: else;Calculadora.c: 44: {;Calculadora.c: 45: op2[index] = key_presse
      +                          d;
   824  001214  0E6A               	movlw	low main@op2
   825  001216  2584               	addwf	main@index& (0+255),w,b
   826  001218  6ED9               	movwf	fsr2l,c
   827  00121A  0E00               	movlw	high main@op2
   828  00121C  2185               	addwfc	(main@index+1)& (0+255),w,b
   829  00121E  6EDA               	movwf	fsr2h,c
   830  001220  C092  FFDF         	movff	main@key_pressed,indf2
   831  001224  EF06  F009         	goto	l3120
   832  001228                     l3126:
   833                           
   834                           ; BSR set to: 0
   835                           ;Calculadora.c: 47: };Calculadora.c: 48: };Calculadora.c: 50: if(key_pressed=='+' || key
      +                          _pressed=='-' || key_pressed=='*' || key_pressed=='/' )
   836  001228  0E2B               	movlw	43
   837  00122A  1992               	xorwf	main@key_pressed& (0+255),w,b
   838  00122C  B4D8               	btfsc	status,2,c
   839  00122E  EF1B  F009         	goto	u3211
   840  001232  EF1D  F009         	goto	u3210
   841  001236                     u3211:
   842  001236  EF38  F009         	goto	l48
   843  00123A                     u3210:
   844  00123A                     
   845                           ; BSR set to: 0
   846  00123A  0E2D               	movlw	45
   847  00123C  1992               	xorwf	main@key_pressed& (0+255),w,b
   848  00123E  B4D8               	btfsc	status,2,c
   849  001240  EF24  F009         	goto	u3221
   850  001244  EF26  F009         	goto	u3220
   851  001248                     u3221:
   852  001248  EF38  F009         	goto	l48
   853  00124C                     u3220:
   854  00124C                     
   855                           ; BSR set to: 0
   856  00124C  0E2A               	movlw	42
   857  00124E  1992               	xorwf	main@key_pressed& (0+255),w,b
   858  001250  B4D8               	btfsc	status,2,c
   859  001252  EF2D  F009         	goto	u3231
   860  001256  EF2F  F009         	goto	u3230
   861  00125A                     u3231:
   862  00125A  EF38  F009         	goto	l48
   863  00125E                     u3230:
   864  00125E                     
   865                           ; BSR set to: 0
   866  00125E  0E2F               	movlw	47
   867  001260  1992               	xorwf	main@key_pressed& (0+255),w,b
   868  001262  A4D8               	btfss	status,2,c
   869  001264  EF36  F009         	goto	u3241
   870  001268  EF38  F009         	goto	u3240
   871  00126C                     u3241:
   872  00126C  EF40  F009         	goto	l3136
   873  001270                     u3240:
   874  001270                     l48:
   875                           
   876                           ; BSR set to: 0
   877                           ;Calculadora.c: 51: {;Calculadora.c: 53: operator=key_pressed;
   878  001270  C092  F082         	movff	main@key_pressed,main@operator
   879  001274                     
   880                           ; BSR set to: 0
   881                           ;Calculadora.c: 54: index=0;
   882  001274  0E00               	movlw	0
   883  001276  6F85               	movwf	(main@index+1)& (0+255),b
   884  001278  0E00               	movlw	0
   885  00127A  6F84               	movwf	main@index& (0+255),b
   886                           
   887                           ;Calculadora.c: 55: flag=1;
   888  00127C  0E01               	movlw	1
   889  00127E  6F83               	movwf	main@flag& (0+255),b
   890  001280                     l3136:
   891                           
   892                           ; BSR set to: 0
   893                           ;Calculadora.c: 57: };Calculadora.c: 60: if(key_pressed=='=')
   894  001280  0E3D               	movlw	61
   895  001282  1992               	xorwf	main@key_pressed& (0+255),w,b
   896  001284  A4D8               	btfss	status,2,c
   897  001286  EF47  F009         	goto	u3251
   898  00128A  EF49  F009         	goto	u3250
   899  00128E                     u3251:
   900  00128E  EF55  F00A         	goto	l3182
   901  001292                     u3250:
   902  001292                     
   903                           ; BSR set to: 0
   904                           ;Calculadora.c: 61: {;Calculadora.c: 62: number1=atol(op1);
   905  001292  0E60               	movlw	low main@op1
   906  001294  6E0D               	movwf	atol@s^0,c
   907  001296  0E00               	movlw	high main@op1
   908  001298  6E0E               	movwf	(atol@s+1)^0,c
   909  00129A  EC3D  F00E         	call	_atol	;wreg free
   910  00129E  C00D  F08A         	movff	?_atol,main@number1
   911  0012A2  C00E  F08B         	movff	?_atol+1,main@number1+1
   912  0012A6  C00F  F08C         	movff	?_atol+2,main@number1+2
   913  0012AA  C010  F08D         	movff	?_atol+3,main@number1+3
   914                           
   915                           ;Calculadora.c: 63: number2=atol(op2);
   916  0012AE  0E6A               	movlw	low main@op2
   917  0012B0  6E0D               	movwf	atol@s^0,c
   918  0012B2  0E00               	movlw	high main@op2
   919  0012B4  6E0E               	movwf	(atol@s+1)^0,c
   920  0012B6  EC3D  F00E         	call	_atol	;wreg free
   921  0012BA  C00D  F08E         	movff	?_atol,main@number2
   922  0012BE  C00E  F08F         	movff	?_atol+1,main@number2+1
   923  0012C2  C00F  F090         	movff	?_atol+2,main@number2+2
   924  0012C6  C010  F091         	movff	?_atol+3,main@number2+3
   925  0012CA                     
   926                           ;Calculadora.c: 64: LCD_Command(0xc0);
   927  0012CA  0EC0               	movlw	192
   928  0012CC  EC8B  F012         	call	_LCD_Command
   929                           
   930                           ;Calculadora.c: 68: switch(operator)
   931  0012D0  EF0B  F00A         	goto	l3172
   932  0012D4                     l3142:
   933                           
   934                           ; BSR set to: 0
   935                           ;Calculadora.c: 74: result = number1+number2;
   936  0012D4  518E               	movf	main@number2& (0+255),w,b
   937  0012D6  258A               	addwf	main@number1& (0+255),w,b
   938  0012D8  6F86               	movwf	main@result& (0+255),b
   939  0012DA  518F               	movf	(main@number2+1)& (0+255),w,b
   940  0012DC  218B               	addwfc	(main@number1+1)& (0+255),w,b
   941  0012DE  6F87               	movwf	(main@result+1)& (0+255),b
   942  0012E0  5190               	movf	(main@number2+2)& (0+255),w,b
   943  0012E2  218C               	addwfc	(main@number1+2)& (0+255),w,b
   944  0012E4  6F88               	movwf	(main@result+2)& (0+255),b
   945  0012E6  5191               	movf	(main@number2+3)& (0+255),w,b
   946  0012E8  218D               	addwfc	(main@number1+3)& (0+255),w,b
   947  0012EA  6F89               	movwf	(main@result+3)& (0+255),b
   948  0012EC                     l3144:
   949                           
   950                           ;Calculadora.c: 75: ltoa(result_output,result,10);
   951  0012EC  0E74               	movlw	low main@result_output
   952  0012EE  6E1B               	movwf	ltoa@buf^0,c
   953  0012F0  0E00               	movlw	high main@result_output
   954  0012F2  6E1C               	movwf	(ltoa@buf+1)^0,c
   955  0012F4  C086  F01D         	movff	main@result,ltoa@val
   956  0012F8  C087  F01E         	movff	main@result+1,ltoa@val+1
   957  0012FC  C088  F01F         	movff	main@result+2,ltoa@val+2
   958  001300  C089  F020         	movff	main@result+3,ltoa@val+3
   959  001304  0E00               	movlw	0
   960  001306  6E22               	movwf	(ltoa@base+1)^0,c
   961  001308  0E0A               	movlw	10
   962  00130A  6E21               	movwf	ltoa@base^0,c
   963  00130C  EC3B  F012         	call	_ltoa	;wreg free
   964  001310                     
   965                           ;Calculadora.c: 77: LCD_String(result_output);
   966  001310  0E74               	movlw	low main@result_output
   967  001312  6E09               	movwf	LCD_String@msg^0,c
   968  001314  0E00               	movlw	high main@result_output
   969  001316  6E0A               	movwf	(LCD_String@msg+1)^0,c
   970  001318  EC0C  F012         	call	_LCD_String	;wreg free
   971                           
   972                           ;Calculadora.c: 78: break;
   973  00131C  EF55  F00A         	goto	l3182
   974  001320                     l3148:
   975                           
   976                           ; BSR set to: 0
   977                           ;Calculadora.c: 83: result = number1-number2;
   978  001320  518E               	movf	main@number2& (0+255),w,b
   979  001322  5D8A               	subwf	main@number1& (0+255),w,b
   980  001324  6F86               	movwf	main@result& (0+255),b
   981  001326  518F               	movf	(main@number2+1)& (0+255),w,b
   982  001328  598B               	subwfb	(main@number1+1)& (0+255),w,b
   983  00132A  6F87               	movwf	(main@result+1)& (0+255),b
   984  00132C  5190               	movf	(main@number2+2)& (0+255),w,b
   985  00132E  598C               	subwfb	(main@number1+2)& (0+255),w,b
   986  001330  6F88               	movwf	(main@result+2)& (0+255),b
   987  001332  5191               	movf	(main@number2+3)& (0+255),w,b
   988  001334  598D               	subwfb	(main@number1+3)& (0+255),w,b
   989  001336  6F89               	movwf	(main@result+3)& (0+255),b
   990  001338  EF76  F009         	goto	l3144
   991  00133C                     l3154:
   992                           
   993                           ; BSR set to: 0
   994                           ;Calculadora.c: 91: result = number1*number2;
   995  00133C  C08A  F001         	movff	main@number1,___lmul@multiplier
   996  001340  C08B  F002         	movff	main@number1+1,___lmul@multiplier+1
   997  001344  C08C  F003         	movff	main@number1+2,___lmul@multiplier+2
   998  001348  C08D  F004         	movff	main@number1+3,___lmul@multiplier+3
   999  00134C  C08E  F005         	movff	main@number2,___lmul@multiplicand
  1000  001350  C08F  F006         	movff	main@number2+1,___lmul@multiplicand+1
  1001  001354  C090  F007         	movff	main@number2+2,___lmul@multiplicand+2
  1002  001358  C091  F008         	movff	main@number2+3,___lmul@multiplicand+3
  1003  00135C  ECA5  F011         	call	___lmul	;wreg free
  1004  001360  C001  F086         	movff	?___lmul,main@result
  1005  001364  C002  F087         	movff	?___lmul+1,main@result+1
  1006  001368  C003  F088         	movff	?___lmul+2,main@result+2
  1007  00136C  C004  F089         	movff	?___lmul+3,main@result+3
  1008  001370  EF76  F009         	goto	l3144
  1009  001374                     l3160:
  1010                           
  1011                           ; BSR set to: 0
  1012                           ;Calculadora.c: 99: if(number2==0)
  1013  001374  518E               	movf	main@number2& (0+255),w,b
  1014  001376  118F               	iorwf	(main@number2+1)& (0+255),w,b
  1015  001378  1190               	iorwf	(main@number2+2)& (0+255),w,b
  1016  00137A  1191               	iorwf	(main@number2+3)& (0+255),w,b
  1017  00137C  A4D8               	btfss	status,2,c
  1018  00137E  EFC3  F009         	goto	u3261
  1019  001382  EFC5  F009         	goto	u3260
  1020  001386                     u3261:
  1021  001386  EFCF  F009         	goto	l3166
  1022  00138A                     u3260:
  1023  00138A                     
  1024                           ; BSR set to: 0
  1025                           ;Calculadora.c: 100: {;Calculadora.c: 102: LCD_Clear();
  1026  00138A  ECA8  F013         	call	_LCD_Clear	;wreg free
  1027  00138E                     
  1028                           ;Calculadora.c: 103: LCD_String("ERROR");
  1029  00138E  0E15               	movlw	low STR_3
  1030  001390  6E09               	movwf	LCD_String@msg^0,c
  1031  001392  0E08               	movlw	high STR_3
  1032  001394  6E0A               	movwf	(LCD_String@msg+1)^0,c
  1033  001396  EC0C  F012         	call	_LCD_String	;wreg free
  1034                           
  1035                           ;Calculadora.c: 104: }
  1036  00139A  EF55  F00A         	goto	l3182
  1037  00139E                     l3166:
  1038                           
  1039                           ; BSR set to: 0
  1040                           ;Calculadora.c: 105: else;Calculadora.c: 106: {;Calculadora.c: 108: div_result = (float)
      +                          number1/(float)number2;
  1041  00139E  C08A  F00B         	movff	main@number1,___xxtofl@val
  1042  0013A2  C08B  F00C         	movff	main@number1+1,___xxtofl@val+1
  1043  0013A6  C08C  F00D         	movff	main@number1+2,___xxtofl@val+2
  1044  0013AA  C08D  F00E         	movff	main@number1+3,___xxtofl@val+3
  1045  0013AE  0E00               	movlw	0
  1046  0013B0  EC63  F00D         	call	___xxtofl
  1047  0013B4  C00B  F019         	movff	?___xxtofl,___fldiv@b
  1048  0013B8  C00C  F01A         	movff	?___xxtofl+1,___fldiv@b+1
  1049  0013BC  C00D  F01B         	movff	?___xxtofl+2,___fldiv@b+2
  1050  0013C0  C00E  F01C         	movff	?___xxtofl+3,___fldiv@b+3
  1051  0013C4  C08E  F00B         	movff	main@number2,___xxtofl@val
  1052  0013C8  C08F  F00C         	movff	main@number2+1,___xxtofl@val+1
  1053  0013CC  C090  F00D         	movff	main@number2+2,___xxtofl@val+2
  1054  0013D0  C091  F00E         	movff	main@number2+3,___xxtofl@val+3
  1055  0013D4  0E00               	movlw	0
  1056  0013D6  EC63  F00D         	call	___xxtofl
  1057  0013DA  C00B  F01D         	movff	?___xxtofl,___fldiv@a
  1058  0013DE  C00C  F01E         	movff	?___xxtofl+1,___fldiv@a+1
  1059  0013E2  C00D  F01F         	movff	?___xxtofl+2,___fldiv@a+2
  1060  0013E6  C00E  F020         	movff	?___xxtofl+3,___fldiv@a+3
  1061  0013EA  EC5F  F00A         	call	___fldiv	;wreg free
  1062  0013EE  C019  F07E         	movff	?___fldiv,main@div_result
  1063  0013F2  C01A  F07F         	movff	?___fldiv+1,main@div_result+1
  1064  0013F6  C01B  F080         	movff	?___fldiv+2,main@div_result+2
  1065  0013FA  C01C  F081         	movff	?___fldiv+3,main@div_result+3
  1066  0013FE                     
  1067                           ;Calculadora.c: 111: display_float(div_result);
  1068  0013FE  C07E  F021         	movff	main@div_result,display_float@div_result
  1069  001402  C07F  F022         	movff	main@div_result+1,display_float@div_result+1
  1070  001406  C080  F023         	movff	main@div_result+2,display_float@div_result+2
  1071  00140A  C081  F024         	movff	main@div_result+3,display_float@div_result+3
  1072  00140E  ECDA  F00E         	call	_display_float	;wreg free
  1073  001412  EF55  F00A         	goto	l3182
  1074  001416                     l3172:
  1075  001416  0100               	movlb	0	; () banked
  1076  001418  5182               	movf	main@operator& (0+255),w,b
  1077                           
  1078                           ; Switch size 1, requested type "simple"
  1079                           ; Number of cases is 4, Range of values is 42 to 47
  1080                           ; switch strategies available:
  1081                           ; Name         Instructions Cycles
  1082                           ; simple_byte           13     7 (average)
  1083                           ;	Chosen strategy is simple_byte
  1084  00141A  0A2A               	xorlw	42	; case 42
  1085  00141C  B4D8               	btfsc	status,2,c
  1086  00141E  EF9E  F009         	goto	l3154
  1087  001422  0A01               	xorlw	1	; case 43
  1088  001424  B4D8               	btfsc	status,2,c
  1089  001426  EF6A  F009         	goto	l3142
  1090  00142A  0A06               	xorlw	6	; case 45
  1091  00142C  B4D8               	btfsc	status,2,c
  1092  00142E  EF90  F009         	goto	l3148
  1093  001432  0A02               	xorlw	2	; case 47
  1094  001434  B4D8               	btfsc	status,2,c
  1095  001436  EFBA  F009         	goto	l3160
  1096  00143A  EF1F  F00A         	goto	l49
  1097  00143E                     l49:
  1098                           
  1099                           ; BSR set to: 0
  1100                           ;Calculadora.c: 121: };Calculadora.c: 123: }
  1101  00143E  EF55  F00A         	goto	l3182
  1102  001442                     l3174:
  1103                           
  1104                           ; BSR set to: 0
  1105                           ;Calculadora.c: 124: else;Calculadora.c: 125: {;Calculadora.c: 126: LCD_Clear();
  1106  001442  ECA8  F013         	call	_LCD_Clear	;wreg free
  1107                           
  1108                           ;Calculadora.c: 127: MSdelay(10);
  1109  001446  0E00               	movlw	0
  1110  001448  6E02               	movwf	(MSdelay@val+1)^0,c
  1111  00144A  0E0A               	movlw	10
  1112  00144C  6E01               	movwf	MSdelay@val^0,c
  1113  00144E  ECB1  F012         	call	_MSdelay	;wreg free
  1114  001452                     
  1115                           ;Calculadora.c: 128: memset(op1,0,10);
  1116  001452  0E60               	movlw	low main@op1
  1117  001454  6E01               	movwf	memset@p1^0,c
  1118  001456  0E00               	movlw	high main@op1
  1119  001458  6E02               	movwf	(memset@p1+1)^0,c
  1120  00145A  0E00               	movlw	0
  1121  00145C  6E04               	movwf	(memset@c+1)^0,c
  1122  00145E  0E00               	movlw	0
  1123  001460  6E03               	movwf	memset@c^0,c
  1124  001462  0E00               	movlw	0
  1125  001464  6E06               	movwf	(memset@n+1)^0,c
  1126  001466  0E0A               	movlw	10
  1127  001468  6E05               	movwf	memset@n^0,c
  1128  00146A  EC3B  F013         	call	_memset	;wreg free
  1129  00146E                     
  1130                           ;Calculadora.c: 129: memset(op2,0,10);
  1131  00146E  0E6A               	movlw	low main@op2
  1132  001470  6E01               	movwf	memset@p1^0,c
  1133  001472  0E00               	movlw	high main@op2
  1134  001474  6E02               	movwf	(memset@p1+1)^0,c
  1135  001476  0E00               	movlw	0
  1136  001478  6E04               	movwf	(memset@c+1)^0,c
  1137  00147A  0E00               	movlw	0
  1138  00147C  6E03               	movwf	memset@c^0,c
  1139  00147E  0E00               	movlw	0
  1140  001480  6E06               	movwf	(memset@n+1)^0,c
  1141  001482  0E0A               	movlw	10
  1142  001484  6E05               	movwf	memset@n^0,c
  1143  001486  EC3B  F013         	call	_memset	;wreg free
  1144  00148A                     
  1145                           ;Calculadora.c: 130: memset(result_output,0,10);
  1146  00148A  0E74               	movlw	low main@result_output
  1147  00148C  6E01               	movwf	memset@p1^0,c
  1148  00148E  0E00               	movlw	high main@result_output
  1149  001490  6E02               	movwf	(memset@p1+1)^0,c
  1150  001492  0E00               	movlw	0
  1151  001494  6E04               	movwf	(memset@c+1)^0,c
  1152  001496  0E00               	movlw	0
  1153  001498  6E03               	movwf	memset@c^0,c
  1154  00149A  0E00               	movlw	0
  1155  00149C  6E06               	movwf	(memset@n+1)^0,c
  1156  00149E  0E0A               	movlw	10
  1157  0014A0  6E05               	movwf	memset@n^0,c
  1158  0014A2  EC3B  F013         	call	_memset	;wreg free
  1159                           
  1160                           ;Calculadora.c: 131: break;
  1161  0014A6  EF5D  F00A         	goto	l62
  1162  0014AA                     l3182:
  1163                           
  1164                           ;Calculadora.c: 132: };Calculadora.c: 133: MSdelay(1);
  1165  0014AA  0E00               	movlw	0
  1166  0014AC  6E02               	movwf	(MSdelay@val+1)^0,c
  1167  0014AE  0E01               	movlw	1
  1168  0014B0  6E01               	movwf	MSdelay@val^0,c
  1169  0014B2  ECB1  F012         	call	_MSdelay	;wreg free
  1170  0014B6  EFB5  F008         	goto	l3100
  1171  0014BA                     l62:
  1172  0014BA  EF00  F000         	goto	start
  1173  0014BE                     __end_of_main:
  1174                           	opt callstack 0
  1175                           
  1176 ;; *************** function _memset *****************
  1177 ;; Defined at:
  1178 ;;		line 8 in file "C:\Program Files (x86)\Microchip\xc8\v2.10\pic\sources\c90\common\memset.c"
  1179 ;; Parameters:    Size  Location     Type
  1180 ;;  p1              2    0[COMRAM] PTR void 
  1181 ;;		 -> main@result_output(10), main@op2(10), main@op1(10), 
  1182 ;;  c               2    2[COMRAM] int 
  1183 ;;  n               2    4[COMRAM] unsigned int 
  1184 ;; Auto vars:     Size  Location     Type
  1185 ;;  p               2    6[COMRAM] PTR unsigned char 
  1186 ;;		 -> main@result_output(10), main@op2(10), main@op1(10), 
  1187 ;; Return value:  Size  Location     Type
  1188 ;;                  2    0[COMRAM] PTR void 
  1189 ;; Registers used:
  1190 ;;		wreg, fsr2l, fsr2h, status,2, status,0
  1191 ;; Tracked objects:
  1192 ;;		On entry : 0/0
  1193 ;;		On exit  : 0/0
  1194 ;;		Unchanged: 0/0
  1195 ;; Data sizes:     COMRAM   BANK0   BANK1   BANK2   BANK3   BANK4   BANK5   BANK6   BANK7
  1196 ;;      Params:         6       0       0       0       0       0       0       0       0
  1197 ;;      Locals:         2       0       0       0       0       0       0       0       0
  1198 ;;      Temps:          0       0       0       0       0       0       0       0       0
  1199 ;;      Totals:         8       0       0       0       0       0       0       0       0
  1200 ;;Total ram usage:        8 bytes
  1201 ;; Hardware stack levels used:    1
  1202 ;; This function calls:
  1203 ;;		Nothing
  1204 ;; This function is called by:
  1205 ;;		_main
  1206 ;; This function uses a non-reentrant model
  1207 ;;
  1208                           
  1209                           	psect	text1
  1210  002676                     __ptext1:
  1211                           	opt callstack 0
  1212  002676                     _memset:
  1213                           	opt callstack 30
  1214  002676  C001  F007         	movff	memset@p1,memset@p
  1215  00267A  C002  F008         	movff	memset@p1+1,memset@p+1
  1216  00267E  EF49  F013         	goto	l2944
  1217  002682                     l2940:
  1218  002682  C007  FFD9         	movff	memset@p,fsr2l
  1219  002686  C008  FFDA         	movff	memset@p+1,fsr2h
  1220  00268A  C003  FFDF         	movff	memset@c,indf2
  1221  00268E  4A07               	infsnz	memset@p^0,f,c
  1222  002690  2A08               	incf	(memset@p+1)^0,f,c
  1223  002692                     l2944:
  1224  002692  0605               	decf	memset@n^0,f,c
  1225  002694  A0D8               	btfss	status,0,c
  1226  002696  0606               	decf	(memset@n+1)^0,f,c
  1227  002698  2805               	incf	memset@n^0,w,c
  1228  00269A  E106               	bnz	u2901
  1229  00269C  2806               	incf	(memset@n+1)^0,w,c
  1230  00269E  A4D8               	btfss	status,2,c
  1231  0026A0  EF54  F013         	goto	u2901
  1232  0026A4  EF56  F013         	goto	u2900
  1233  0026A8                     u2901:
  1234  0026A8  EF41  F013         	goto	l2940
  1235  0026AC                     u2900:
  1236  0026AC  0012               	return		;funcret
  1237  0026AE                     __end_of_memset:
  1238                           	opt callstack 0
  1239                           
  1240 ;; *************** function _ltoa *****************
  1241 ;; Defined at:
  1242 ;;		line 7 in file "C:\Program Files (x86)\Microchip\xc8\v2.10\pic\sources\c90\common\ltoa.c"
  1243 ;; Parameters:    Size  Location     Type
  1244 ;;  buf             2   26[COMRAM] PTR unsigned char 
  1245 ;;		 -> main@result_output(10), 
  1246 ;;  val             4   28[COMRAM] long 
  1247 ;;  base            2   32[COMRAM] int 
  1248 ;; Auto vars:     Size  Location     Type
  1249 ;;  cp              2    0        PTR unsigned char 
  1250 ;;		 -> main@result_output(10), 
  1251 ;; Return value:  Size  Location     Type
  1252 ;;                  2   26[COMRAM] PTR unsigned char 
  1253 ;; Registers used:
  1254 ;;		wreg, fsr2l, fsr2h, status,2, status,0, cstack
  1255 ;; Tracked objects:
  1256 ;;		On entry : 0/0
  1257 ;;		On exit  : 0/0
  1258 ;;		Unchanged: 0/0
  1259 ;; Data sizes:     COMRAM   BANK0   BANK1   BANK2   BANK3   BANK4   BANK5   BANK6   BANK7
  1260 ;;      Params:         8       0       0       0       0       0       0       0       0
  1261 ;;      Locals:         2       0       0       0       0       0       0       0       0
  1262 ;;      Temps:          0       0       0       0       0       0       0       0       0
  1263 ;;      Totals:        10       0       0       0       0       0       0       0       0
  1264 ;;Total ram usage:       10 bytes
  1265 ;; Hardware stack levels used:    1
  1266 ;; Hardware stack levels required when called:    2
  1267 ;; This function calls:
  1268 ;;		_ultoa
  1269 ;; This function is called by:
  1270 ;;		_main
  1271 ;; This function uses a non-reentrant model
  1272 ;;
  1273                           
  1274                           	psect	text2
  1275  002476                     __ptext2:
  1276                           	opt callstack 0
  1277  002476                     _ltoa:
  1278                           	opt callstack 28
  1279  002476  BE20               	btfsc	(ltoa@val+3)^0,7,c
  1280  002478  EF42  F012         	goto	u2890
  1281  00247C  EF40  F012         	goto	u2891
  1282  002480                     u2891:
  1283  002480  EF52  F012         	goto	l2920
  1284  002484                     u2890:
  1285  002484  C01B  FFD9         	movff	ltoa@buf,fsr2l
  1286  002488  C01C  FFDA         	movff	ltoa@buf+1,fsr2h
  1287  00248C  0E2D               	movlw	45
  1288  00248E  6EDF               	movwf	indf2,c
  1289  002490  4A1B               	infsnz	ltoa@buf^0,f,c
  1290  002492  2A1C               	incf	(ltoa@buf+1)^0,f,c
  1291  002494  1E20               	comf	(ltoa@val+3)^0,f,c
  1292  002496  1E1F               	comf	(ltoa@val+2)^0,f,c
  1293  002498  1E1E               	comf	(ltoa@val+1)^0,f,c
  1294  00249A  6C1D               	negf	ltoa@val^0,c
  1295  00249C  0E00               	movlw	0
  1296  00249E  221E               	addwfc	(ltoa@val+1)^0,f,c
  1297  0024A0  221F               	addwfc	(ltoa@val+2)^0,f,c
  1298  0024A2  2220               	addwfc	(ltoa@val+3)^0,f,c
  1299  0024A4                     l2920:
  1300  0024A4  C01B  F00E         	movff	ltoa@buf,ultoa@buf
  1301  0024A8  C01C  F00F         	movff	ltoa@buf+1,ultoa@buf+1
  1302  0024AC  C01D  F010         	movff	ltoa@val,ultoa@val
  1303  0024B0  C01E  F011         	movff	ltoa@val+1,ultoa@val+1
  1304  0024B4  C01F  F012         	movff	ltoa@val+2,ultoa@val+2
  1305  0024B8  C020  F013         	movff	ltoa@val+3,ultoa@val+3
  1306  0024BC  C021  F014         	movff	ltoa@base,ultoa@base
  1307  0024C0  C022  F015         	movff	ltoa@base+1,ultoa@base+1
  1308  0024C4  EC67  F00F         	call	_ultoa	;wreg free
  1309  0024C8  0012               	return		;funcret
  1310  0024CA                     __end_of_ltoa:
  1311                           	opt callstack 0
  1312                           
  1313 ;; *************** function _ultoa *****************
  1314 ;; Defined at:
  1315 ;;		line 32 in file "C:\Program Files (x86)\Microchip\xc8\v2.10\pic\sources\c90\common\ltoa.c"
  1316 ;; Parameters:    Size  Location     Type
  1317 ;;  buf             2   13[COMRAM] PTR unsigned char 
  1318 ;;		 -> main@result_output(10), 
  1319 ;;  val             4   15[COMRAM] unsigned long 
  1320 ;;  base            2   19[COMRAM] int 
  1321 ;; Auto vars:     Size  Location     Type
  1322 ;;  v               4   21[COMRAM] unsigned long 
  1323 ;;  c               1   25[COMRAM] unsigned char 
  1324 ;; Return value:  Size  Location     Type
  1325 ;;                  2   13[COMRAM] PTR unsigned char 
  1326 ;; Registers used:
  1327 ;;		wreg, fsr2l, fsr2h, status,2, status,0, cstack
  1328 ;; Tracked objects:
  1329 ;;		On entry : 0/0
  1330 ;;		On exit  : 0/0
  1331 ;;		Unchanged: 0/0
  1332 ;; Data sizes:     COMRAM   BANK0   BANK1   BANK2   BANK3   BANK4   BANK5   BANK6   BANK7
  1333 ;;      Params:         8       0       0       0       0       0       0       0       0
  1334 ;;      Locals:         5       0       0       0       0       0       0       0       0
  1335 ;;      Temps:          0       0       0       0       0       0       0       0       0
  1336 ;;      Totals:        13       0       0       0       0       0       0       0       0
  1337 ;;Total ram usage:       13 bytes
  1338 ;; Hardware stack levels used:    1
  1339 ;; Hardware stack levels required when called:    1
  1340 ;; This function calls:
  1341 ;;		___lldiv
  1342 ;;		___llmod
  1343 ;; This function is called by:
  1344 ;;		_ltoa
  1345 ;; This function uses a non-reentrant model
  1346 ;;
  1347                           
  1348                           	psect	text3
  1349  001ECE                     __ptext3:
  1350                           	opt callstack 0
  1351  001ECE                     _ultoa:
  1352                           	opt callstack 28
  1353  001ECE  C010  F016         	movff	ultoa@val,ultoa@v
  1354  001ED2  C011  F017         	movff	ultoa@val+1,ultoa@v+1
  1355  001ED6  C012  F018         	movff	ultoa@val+2,ultoa@v+2
  1356  001EDA  C013  F019         	movff	ultoa@val+3,ultoa@v+3
  1357  001EDE                     l2710:
  1358  001EDE  C016  F001         	movff	ultoa@v,___lldiv@dividend
  1359  001EE2  C017  F002         	movff	ultoa@v+1,___lldiv@dividend+1
  1360  001EE6  C018  F003         	movff	ultoa@v+2,___lldiv@dividend+2
  1361  001EEA  C019  F004         	movff	ultoa@v+3,___lldiv@dividend+3
  1362  001EEE  C014  F005         	movff	ultoa@base,___lldiv@divisor
  1363  001EF2  C015  F006         	movff	ultoa@base+1,___lldiv@divisor+1
  1364  001EF6  0E00               	movlw	0
  1365  001EF8  BE06               	btfsc	(___lldiv@divisor+1)^0,7,c
  1366  001EFA  0EFF               	movlw	-1
  1367  001EFC  6E07               	movwf	(___lldiv@divisor+2)^0,c
  1368  001EFE  6E08               	movwf	(___lldiv@divisor+3)^0,c
  1369  001F00  ECD5  F010         	call	___lldiv	;wreg free
  1370  001F04  C001  F016         	movff	?___lldiv,ultoa@v
  1371  001F08  C002  F017         	movff	?___lldiv+1,ultoa@v+1
  1372  001F0C  C003  F018         	movff	?___lldiv+2,ultoa@v+2
  1373  001F10  C004  F019         	movff	?___lldiv+3,ultoa@v+3
  1374  001F14  4A0E               	infsnz	ultoa@buf^0,f,c
  1375  001F16  2A0F               	incf	(ultoa@buf+1)^0,f,c
  1376  001F18  5016               	movf	ultoa@v^0,w,c
  1377  001F1A  1017               	iorwf	(ultoa@v+1)^0,w,c
  1378  001F1C  1018               	iorwf	(ultoa@v+2)^0,w,c
  1379  001F1E  1019               	iorwf	(ultoa@v+3)^0,w,c
  1380  001F20  A4D8               	btfss	status,2,c
  1381  001F22  EF95  F00F         	goto	u2641
  1382  001F26  EF97  F00F         	goto	u2640
  1383  001F2A                     u2641:
  1384  001F2A  EF6F  F00F         	goto	l2710
  1385  001F2E                     u2640:
  1386  001F2E  C00E  FFD9         	movff	ultoa@buf,fsr2l
  1387  001F32  C00F  FFDA         	movff	ultoa@buf+1,fsr2h
  1388  001F36  0E00               	movlw	0
  1389  001F38  6EDF               	movwf	indf2,c
  1390  001F3A  060E               	decf	ultoa@buf^0,f,c
  1391  001F3C  A0D8               	btfss	status,0,c
  1392  001F3E  060F               	decf	(ultoa@buf+1)^0,f,c
  1393  001F40                     l2720:
  1394  001F40  C010  F001         	movff	ultoa@val,___llmod@dividend
  1395  001F44  C011  F002         	movff	ultoa@val+1,___llmod@dividend+1
  1396  001F48  C012  F003         	movff	ultoa@val+2,___llmod@dividend+2
  1397  001F4C  C013  F004         	movff	ultoa@val+3,___llmod@dividend+3
  1398  001F50  C014  F005         	movff	ultoa@base,___llmod@divisor
  1399  001F54  C015  F006         	movff	ultoa@base+1,___llmod@divisor+1
  1400  001F58  0E00               	movlw	0
  1401  001F5A  BE06               	btfsc	(___llmod@divisor+1)^0,7,c
  1402  001F5C  0EFF               	movlw	-1
  1403  001F5E  6E07               	movwf	(___llmod@divisor+2)^0,c
  1404  001F60  6E08               	movwf	(___llmod@divisor+3)^0,c
  1405  001F62  EC27  F011         	call	___llmod	;wreg free
  1406  001F66  5001               	movf	?___llmod^0,w,c
  1407  001F68  6E1A               	movwf	ultoa@c^0,c
  1408  001F6A  C010  F001         	movff	ultoa@val,___lldiv@dividend
  1409  001F6E  C011  F002         	movff	ultoa@val+1,___lldiv@dividend+1
  1410  001F72  C012  F003         	movff	ultoa@val+2,___lldiv@dividend+2
  1411  001F76  C013  F004         	movff	ultoa@val+3,___lldiv@dividend+3
  1412  001F7A  C014  F005         	movff	ultoa@base,___lldiv@divisor
  1413  001F7E  C015  F006         	movff	ultoa@base+1,___lldiv@divisor+1
  1414  001F82  0E00               	movlw	0
  1415  001F84  BE06               	btfsc	(___lldiv@divisor+1)^0,7,c
  1416  001F86  0EFF               	movlw	-1
  1417  001F88  6E07               	movwf	(___lldiv@divisor+2)^0,c
  1418  001F8A  6E08               	movwf	(___lldiv@divisor+3)^0,c
  1419  001F8C  ECD5  F010         	call	___lldiv	;wreg free
  1420  001F90  C001  F010         	movff	?___lldiv,ultoa@val
  1421  001F94  C002  F011         	movff	?___lldiv+1,ultoa@val+1
  1422  001F98  C003  F012         	movff	?___lldiv+2,ultoa@val+2
  1423  001F9C  C004  F013         	movff	?___lldiv+3,ultoa@val+3
  1424  001FA0  0E09               	movlw	9
  1425  001FA2  641A               	cpfsgt	ultoa@c^0,c
  1426  001FA4  EFD6  F00F         	goto	u2651
  1427  001FA8  EFD8  F00F         	goto	u2650
  1428  001FAC                     u2651:
  1429  001FAC  EFDA  F00F         	goto	l874
  1430  001FB0                     u2650:
  1431  001FB0  0E07               	movlw	7
  1432  001FB2  261A               	addwf	ultoa@c^0,f,c
  1433  001FB4                     l874:
  1434  001FB4  0E30               	movlw	48
  1435  001FB6  261A               	addwf	ultoa@c^0,f,c
  1436  001FB8  C00E  FFD9         	movff	ultoa@buf,fsr2l
  1437  001FBC  C00F  FFDA         	movff	ultoa@buf+1,fsr2h
  1438  001FC0  C01A  FFDF         	movff	ultoa@c,indf2
  1439  001FC4  060E               	decf	ultoa@buf^0,f,c
  1440  001FC6  A0D8               	btfss	status,0,c
  1441  001FC8  060F               	decf	(ultoa@buf+1)^0,f,c
  1442  001FCA  5010               	movf	ultoa@val^0,w,c
  1443  001FCC  1011               	iorwf	(ultoa@val+1)^0,w,c
  1444  001FCE  1012               	iorwf	(ultoa@val+2)^0,w,c
  1445  001FD0  1013               	iorwf	(ultoa@val+3)^0,w,c
  1446  001FD2  A4D8               	btfss	status,2,c
  1447  001FD4  EFEE  F00F         	goto	u2661
  1448  001FD8  EFF0  F00F         	goto	u2660
  1449  001FDC                     u2661:
  1450  001FDC  EFA0  F00F         	goto	l2720
  1451  001FE0                     u2660:
  1452  001FE0  0012               	return		;funcret
  1453  001FE2                     __end_of_ultoa:
  1454                           	opt callstack 0
  1455                           
  1456 ;; *************** function ___llmod *****************
  1457 ;; Defined at:
  1458 ;;		line 7 in file "C:\Program Files (x86)\Microchip\xc8\v2.10\pic\sources\c90\common\llmod.c"
  1459 ;; Parameters:    Size  Location     Type
  1460 ;;  dividend        4    0[COMRAM] unsigned long 
  1461 ;;  divisor         4    4[COMRAM] unsigned long 
  1462 ;; Auto vars:     Size  Location     Type
  1463 ;;  counter         1    8[COMRAM] unsigned char 
  1464 ;; Return value:  Size  Location     Type
  1465 ;;                  4    0[COMRAM] unsigned long 
  1466 ;; Registers used:
  1467 ;;		wreg, status,2, status,0
  1468 ;; Tracked objects:
  1469 ;;		On entry : 0/0
  1470 ;;		On exit  : 0/0
  1471 ;;		Unchanged: 0/0
  1472 ;; Data sizes:     COMRAM   BANK0   BANK1   BANK2   BANK3   BANK4   BANK5   BANK6   BANK7
  1473 ;;      Params:         8       0       0       0       0       0       0       0       0
  1474 ;;      Locals:         1       0       0       0       0       0       0       0       0
  1475 ;;      Temps:          0       0       0       0       0       0       0       0       0
  1476 ;;      Totals:         9       0       0       0       0       0       0       0       0
  1477 ;;Total ram usage:        9 bytes
  1478 ;; Hardware stack levels used:    1
  1479 ;; This function calls:
  1480 ;;		Nothing
  1481 ;; This function is called by:
  1482 ;;		_ultoa
  1483 ;; This function uses a non-reentrant model
  1484 ;;
  1485                           
  1486                           	psect	text4
  1487  00224E                     __ptext4:
  1488                           	opt callstack 0
  1489  00224E                     ___llmod:
  1490                           	opt callstack 28
  1491  00224E  5005               	movf	___llmod@divisor^0,w,c
  1492  002250  1006               	iorwf	(___llmod@divisor+1)^0,w,c
  1493  002252  1007               	iorwf	(___llmod@divisor+2)^0,w,c
  1494  002254  1008               	iorwf	(___llmod@divisor+3)^0,w,c
  1495  002256  B4D8               	btfsc	status,2,c
  1496  002258  EF30  F011         	goto	u2141
  1497  00225C  EF32  F011         	goto	u2140
  1498  002260                     u2141:
  1499  002260  EF62  F011         	goto	l578
  1500  002264                     u2140:
  1501  002264  0E01               	movlw	1
  1502  002266  6E09               	movwf	___llmod@counter^0,c
  1503  002268  EF3C  F011         	goto	l2380
  1504  00226C                     l2378:
  1505  00226C  90D8               	bcf	status,0,c
  1506  00226E  3605               	rlcf	___llmod@divisor^0,f,c
  1507  002270  3606               	rlcf	(___llmod@divisor+1)^0,f,c
  1508  002272  3607               	rlcf	(___llmod@divisor+2)^0,f,c
  1509  002274  3608               	rlcf	(___llmod@divisor+3)^0,f,c
  1510  002276  2A09               	incf	___llmod@counter^0,f,c
  1511  002278                     l2380:
  1512  002278  AE08               	btfss	(___llmod@divisor+3)^0,7,c
  1513  00227A  EF41  F011         	goto	u2151
  1514  00227E  EF43  F011         	goto	u2150
  1515  002282                     u2151:
  1516  002282  EF36  F011         	goto	l2378
  1517  002286                     u2150:
  1518  002286                     l2382:
  1519  002286  5005               	movf	___llmod@divisor^0,w,c
  1520  002288  5C01               	subwf	___llmod@dividend^0,w,c
  1521  00228A  5006               	movf	(___llmod@divisor+1)^0,w,c
  1522  00228C  5802               	subwfb	(___llmod@dividend+1)^0,w,c
  1523  00228E  5007               	movf	(___llmod@divisor+2)^0,w,c
  1524  002290  5803               	subwfb	(___llmod@dividend+2)^0,w,c
  1525  002292  5008               	movf	(___llmod@divisor+3)^0,w,c
  1526  002294  5804               	subwfb	(___llmod@dividend+3)^0,w,c
  1527  002296  A0D8               	btfss	status,0,c
  1528  002298  EF50  F011         	goto	u2161
  1529  00229C  EF52  F011         	goto	u2160
  1530  0022A0                     u2161:
  1531  0022A0  EF5A  F011         	goto	l2386
  1532  0022A4                     u2160:
  1533  0022A4  5005               	movf	___llmod@divisor^0,w,c
  1534  0022A6  5E01               	subwf	___llmod@dividend^0,f,c
  1535  0022A8  5006               	movf	(___llmod@divisor+1)^0,w,c
  1536  0022AA  5A02               	subwfb	(___llmod@dividend+1)^0,f,c
  1537  0022AC  5007               	movf	(___llmod@divisor+2)^0,w,c
  1538  0022AE  5A03               	subwfb	(___llmod@dividend+2)^0,f,c
  1539  0022B0  5008               	movf	(___llmod@divisor+3)^0,w,c
  1540  0022B2  5A04               	subwfb	(___llmod@dividend+3)^0,f,c
  1541  0022B4                     l2386:
  1542  0022B4  90D8               	bcf	status,0,c
  1543  0022B6  3208               	rrcf	(___llmod@divisor+3)^0,f,c
  1544  0022B8  3207               	rrcf	(___llmod@divisor+2)^0,f,c
  1545  0022BA  3206               	rrcf	(___llmod@divisor+1)^0,f,c
  1546  0022BC  3205               	rrcf	___llmod@divisor^0,f,c
  1547  0022BE  2E09               	decfsz	___llmod@counter^0,f,c
  1548  0022C0  EF43  F011         	goto	l2382
  1549  0022C4                     l578:
  1550  0022C4  C001  F001         	movff	___llmod@dividend,?___llmod
  1551  0022C8  C002  F002         	movff	___llmod@dividend+1,?___llmod+1
  1552  0022CC  C003  F003         	movff	___llmod@dividend+2,?___llmod+2
  1553  0022D0  C004  F004         	movff	___llmod@dividend+3,?___llmod+3
  1554  0022D4  0012               	return		;funcret
  1555  0022D6                     __end_of___llmod:
  1556                           	opt callstack 0
  1557                           
  1558 ;; *************** function ___lldiv *****************
  1559 ;; Defined at:
  1560 ;;		line 7 in file "C:\Program Files (x86)\Microchip\xc8\v2.10\pic\sources\c90\common\__lldiv.c"
  1561 ;; Parameters:    Size  Location     Type
  1562 ;;  dividend        4    0[COMRAM] unsigned long 
  1563 ;;  divisor         4    4[COMRAM] unsigned long 
  1564 ;; Auto vars:     Size  Location     Type
  1565 ;;  quotient        4    8[COMRAM] unsigned long 
  1566 ;;  counter         1   12[COMRAM] unsigned char 
  1567 ;; Return value:  Size  Location     Type
  1568 ;;                  4    0[COMRAM] unsigned long 
  1569 ;; Registers used:
  1570 ;;		wreg, status,2, status,0
  1571 ;; Tracked objects:
  1572 ;;		On entry : 0/0
  1573 ;;		On exit  : 0/0
  1574 ;;		Unchanged: 0/0
  1575 ;; Data sizes:     COMRAM   BANK0   BANK1   BANK2   BANK3   BANK4   BANK5   BANK6   BANK7
  1576 ;;      Params:         8       0       0       0       0       0       0       0       0
  1577 ;;      Locals:         5       0       0       0       0       0       0       0       0
  1578 ;;      Temps:          0       0       0       0       0       0       0       0       0
  1579 ;;      Totals:        13       0       0       0       0       0       0       0       0
  1580 ;;Total ram usage:       13 bytes
  1581 ;; Hardware stack levels used:    1
  1582 ;; This function calls:
  1583 ;;		Nothing
  1584 ;; This function is called by:
  1585 ;;		_ultoa
  1586 ;; This function uses a non-reentrant model
  1587 ;;
  1588                           
  1589                           	psect	text5
  1590  0021AA                     __ptext5:
  1591                           	opt callstack 0
  1592  0021AA                     ___lldiv:
  1593                           	opt callstack 28
  1594  0021AA  0E00               	movlw	0
  1595  0021AC  6E09               	movwf	___lldiv@quotient^0,c
  1596  0021AE  0E00               	movlw	0
  1597  0021B0  6E0A               	movwf	(___lldiv@quotient+1)^0,c
  1598  0021B2  0E00               	movlw	0
  1599  0021B4  6E0B               	movwf	(___lldiv@quotient+2)^0,c
  1600  0021B6  0E00               	movlw	0
  1601  0021B8  6E0C               	movwf	(___lldiv@quotient+3)^0,c
  1602  0021BA  5005               	movf	___lldiv@divisor^0,w,c
  1603  0021BC  1006               	iorwf	(___lldiv@divisor+1)^0,w,c
  1604  0021BE  1007               	iorwf	(___lldiv@divisor+2)^0,w,c
  1605  0021C0  1008               	iorwf	(___lldiv@divisor+3)^0,w,c
  1606  0021C2  B4D8               	btfsc	status,2,c
  1607  0021C4  EFE6  F010         	goto	u1721
  1608  0021C8  EFE8  F010         	goto	u1720
  1609  0021CC                     u1721:
  1610  0021CC  EF1E  F011         	goto	l197
  1611  0021D0                     u1720:
  1612  0021D0  0E01               	movlw	1
  1613  0021D2  6E0D               	movwf	___lldiv@counter^0,c
  1614  0021D4  EFF2  F010         	goto	l2158
  1615  0021D8                     l2156:
  1616  0021D8  90D8               	bcf	status,0,c
  1617  0021DA  3605               	rlcf	___lldiv@divisor^0,f,c
  1618  0021DC  3606               	rlcf	(___lldiv@divisor+1)^0,f,c
  1619  0021DE  3607               	rlcf	(___lldiv@divisor+2)^0,f,c
  1620  0021E0  3608               	rlcf	(___lldiv@divisor+3)^0,f,c
  1621  0021E2  2A0D               	incf	___lldiv@counter^0,f,c
  1622  0021E4                     l2158:
  1623  0021E4  AE08               	btfss	(___lldiv@divisor+3)^0,7,c
  1624  0021E6  EFF7  F010         	goto	u1731
  1625  0021EA  EFF9  F010         	goto	u1730
  1626  0021EE                     u1731:
  1627  0021EE  EFEC  F010         	goto	l2156
  1628  0021F2                     u1730:
  1629  0021F2                     l2160:
  1630  0021F2  90D8               	bcf	status,0,c
  1631  0021F4  3609               	rlcf	___lldiv@quotient^0,f,c
  1632  0021F6  360A               	rlcf	(___lldiv@quotient+1)^0,f,c
  1633  0021F8  360B               	rlcf	(___lldiv@quotient+2)^0,f,c
  1634  0021FA  360C               	rlcf	(___lldiv@quotient+3)^0,f,c
  1635  0021FC  5005               	movf	___lldiv@divisor^0,w,c
  1636  0021FE  5C01               	subwf	___lldiv@dividend^0,w,c
  1637  002200  5006               	movf	(___lldiv@divisor+1)^0,w,c
  1638  002202  5802               	subwfb	(___lldiv@dividend+1)^0,w,c
  1639  002204  5007               	movf	(___lldiv@divisor+2)^0,w,c
  1640  002206  5803               	subwfb	(___lldiv@dividend+2)^0,w,c
  1641  002208  5008               	movf	(___lldiv@divisor+3)^0,w,c
  1642  00220A  5804               	subwfb	(___lldiv@dividend+3)^0,w,c
  1643  00220C  A0D8               	btfss	status,0,c
  1644  00220E  EF0B  F011         	goto	u1741
  1645  002212  EF0D  F011         	goto	u1740
  1646  002216                     u1741:
  1647  002216  EF16  F011         	goto	l2168
  1648  00221A                     u1740:
  1649  00221A  5005               	movf	___lldiv@divisor^0,w,c
  1650  00221C  5E01               	subwf	___lldiv@dividend^0,f,c
  1651  00221E  5006               	movf	(___lldiv@divisor+1)^0,w,c
  1652  002220  5A02               	subwfb	(___lldiv@dividend+1)^0,f,c
  1653  002222  5007               	movf	(___lldiv@divisor+2)^0,w,c
  1654  002224  5A03               	subwfb	(___lldiv@dividend+2)^0,f,c
  1655  002226  5008               	movf	(___lldiv@divisor+3)^0,w,c
  1656  002228  5A04               	subwfb	(___lldiv@dividend+3)^0,f,c
  1657  00222A  8009               	bsf	___lldiv@quotient^0,0,c
  1658  00222C                     l2168:
  1659  00222C  90D8               	bcf	status,0,c
  1660  00222E  3208               	rrcf	(___lldiv@divisor+3)^0,f,c
  1661  002230  3207               	rrcf	(___lldiv@divisor+2)^0,f,c
  1662  002232  3206               	rrcf	(___lldiv@divisor+1)^0,f,c
  1663  002234  3205               	rrcf	___lldiv@divisor^0,f,c
  1664  002236  2E0D               	decfsz	___lldiv@counter^0,f,c
  1665  002238  EFF9  F010         	goto	l2160
  1666  00223C                     l197:
  1667  00223C  C009  F001         	movff	___lldiv@quotient,?___lldiv
  1668  002240  C00A  F002         	movff	___lldiv@quotient+1,?___lldiv+1
  1669  002244  C00B  F003         	movff	___lldiv@quotient+2,?___lldiv+2
  1670  002248  C00C  F004         	movff	___lldiv@quotient+3,?___lldiv+3
  1671  00224C  0012               	return		;funcret
  1672  00224E                     __end_of___lldiv:
  1673                           	opt callstack 0
  1674                           
  1675 ;; *************** function _keyfind *****************
  1676 ;; Defined at:
  1677 ;;		line 4 in file "teclado.c"
  1678 ;; Parameters:    Size  Location     Type
  1679 ;;		None
  1680 ;; Auto vars:     Size  Location     Type
  1681 ;;		None
  1682 ;; Return value:  Size  Location     Type
  1683 ;;                  1    wreg      unsigned char 
  1684 ;; Registers used:
  1685 ;;		wreg, fsr2l, fsr2h, status,2, status,0, prodl, prodh, cstack
  1686 ;; Tracked objects:
  1687 ;;		On entry : 0/0
  1688 ;;		On exit  : 0/0
  1689 ;;		Unchanged: 0/0
  1690 ;; Data sizes:     COMRAM   BANK0   BANK1   BANK2   BANK3   BANK4   BANK5   BANK6   BANK7
  1691 ;;      Params:         0       0       0       0       0       0       0       0       0
  1692 ;;      Locals:         0       0       0       0       0       0       0       0       0
  1693 ;;      Temps:          0       0       0       0       0       0       0       0       0
  1694 ;;      Totals:         0       0       0       0       0       0       0       0       0
  1695 ;;Total ram usage:        0 bytes
  1696 ;; Hardware stack levels used:    1
  1697 ;; Hardware stack levels required when called:    2
  1698 ;; This function calls:
  1699 ;;		_LCD_Char
  1700 ;;		_MSdelay
  1701 ;; This function is called by:
  1702 ;;		_main
  1703 ;; This function uses a non-reentrant model
  1704 ;;
  1705                           
  1706                           	psect	text6
  1707  001858                     __ptext6:
  1708                           	opt callstack 0
  1709  001858                     _keyfind:
  1710                           	opt callstack 28
  1711  001858                     
  1712                           ;teclado.c: 6: TRISB = 0xf0;
  1713  001858  0EF0               	movlw	240
  1714  00185A  6E93               	movwf	147,c	;volatile
  1715                           
  1716                           ;teclado.c: 7: LATB = 0xf0;
  1717  00185C  0EF0               	movlw	240
  1718  00185E  6E8A               	movwf	138,c	;volatile
  1719  001860                     l2766:
  1720                           
  1721                           ;teclado.c: 11: {;teclado.c: 12: col_loc = PORTB & 0xf0;
  1722  001860  5081               	movf	129,w,c	;volatile
  1723  001862  0BF0               	andlw	240
  1724  001864  6E59               	movwf	_col_loc^0,c
  1725  001866                     
  1726                           ;teclado.c: 13: }while(col_loc!=0xf0);
  1727  001866  0EF0               	movlw	240
  1728  001868  1859               	xorwf	_col_loc^0,w,c
  1729  00186A  A4D8               	btfss	status,2,c
  1730  00186C  EF3A  F00C         	goto	u2681
  1731  001870  EF3C  F00C         	goto	u2680
  1732  001874                     u2681:
  1733  001874  EF30  F00C         	goto	l2766
  1734  001878                     u2680:
  1735  001878                     
  1736                           ;teclado.c: 14: col_loc = PORTB & 0xf0;
  1737  001878  5081               	movf	129,w,c	;volatile
  1738  00187A  0BF0               	andlw	240
  1739  00187C  6E59               	movwf	_col_loc^0,c
  1740                           
  1741                           ;teclado.c: 15: }while(col_loc!=0xf0);
  1742  00187E  0EF0               	movlw	240
  1743  001880  1859               	xorwf	_col_loc^0,w,c
  1744  001882  A4D8               	btfss	status,2,c
  1745  001884  EF46  F00C         	goto	u2691
  1746  001888  EF48  F00C         	goto	u2690
  1747  00188C                     u2691:
  1748  00188C  EF30  F00C         	goto	l2766
  1749  001890                     u2690:
  1750  001890                     
  1751                           ;teclado.c: 17: LATB = 0xf0;
  1752  001890  0EF0               	movlw	240
  1753  001892  6E8A               	movwf	138,c	;volatile
  1754  001894                     l2774:
  1755                           
  1756                           ;teclado.c: 20: {;teclado.c: 21: col_loc = PORTB & 0xf0;
  1757  001894  5081               	movf	129,w,c	;volatile
  1758  001896  0BF0               	andlw	240
  1759  001898  6E59               	movwf	_col_loc^0,c
  1760  00189A                     
  1761                           ;teclado.c: 22: }while(col_loc==0xf0);
  1762  00189A  0EF0               	movlw	240
  1763  00189C  1859               	xorwf	_col_loc^0,w,c
  1764  00189E  B4D8               	btfsc	status,2,c
  1765  0018A0  EF54  F00C         	goto	u2701
  1766  0018A4  EF56  F00C         	goto	u2700
  1767  0018A8                     u2701:
  1768  0018A8  EF4A  F00C         	goto	l2774
  1769  0018AC                     u2700:
  1770  0018AC                     
  1771                           ;teclado.c: 23: col_loc = PORTB & 0xf0;
  1772  0018AC  5081               	movf	129,w,c	;volatile
  1773  0018AE  0BF0               	andlw	240
  1774  0018B0  6E59               	movwf	_col_loc^0,c
  1775                           
  1776                           ;teclado.c: 24: }while(col_loc==0xf0);
  1777  0018B2  0EF0               	movlw	240
  1778  0018B4  1859               	xorwf	_col_loc^0,w,c
  1779  0018B6  B4D8               	btfsc	status,2,c
  1780  0018B8  EF60  F00C         	goto	u2711
  1781  0018BC  EF62  F00C         	goto	u2710
  1782  0018C0                     u2711:
  1783  0018C0  EF4A  F00C         	goto	l2774
  1784  0018C4                     u2710:
  1785  0018C4                     
  1786                           ;teclado.c: 26: MSdelay(20);
  1787  0018C4  0E00               	movlw	0
  1788  0018C6  6E02               	movwf	(MSdelay@val+1)^0,c
  1789  0018C8  0E14               	movlw	20
  1790  0018CA  6E01               	movwf	MSdelay@val^0,c
  1791  0018CC  ECB1  F012         	call	_MSdelay	;wreg free
  1792  0018D0                     
  1793                           ;teclado.c: 28: col_loc = PORTB & 0xf0;
  1794  0018D0  5081               	movf	129,w,c	;volatile
  1795  0018D2  0BF0               	andlw	240
  1796  0018D4  6E59               	movwf	_col_loc^0,c
  1797  0018D6                     l2784:
  1798                           
  1799                           ;teclado.c: 31: {;teclado.c: 32: LATB = 0xfe;
  1800  0018D6  0EFE               	movlw	254
  1801  0018D8  6E8A               	movwf	138,c	;volatile
  1802  0018DA                     
  1803                           ;teclado.c: 33: col_loc = PORTB & 0xf0;
  1804  0018DA  5081               	movf	129,w,c	;volatile
  1805  0018DC  0BF0               	andlw	240
  1806  0018DE  6E59               	movwf	_col_loc^0,c
  1807  0018E0                     
  1808                           ;teclado.c: 34: temp_col=col_loc;
  1809  0018E0  C059  F057         	movff	_col_loc,_temp_col
  1810  0018E4                     
  1811                           ;teclado.c: 35: if(col_loc!=0xf0)
  1812  0018E4  0EF0               	movlw	240
  1813  0018E6  1859               	xorwf	_col_loc^0,w,c
  1814  0018E8  B4D8               	btfsc	status,2,c
  1815  0018EA  EF79  F00C         	goto	u2721
  1816  0018EE  EF7B  F00C         	goto	u2720
  1817  0018F2                     u2721:
  1818  0018F2  EF8D  F00C         	goto	l2796
  1819  0018F6                     u2720:
  1820  0018F6                     
  1821                           ;teclado.c: 36: {;teclado.c: 37: rowloc=0;
  1822  0018F6  0E00               	movlw	0
  1823  0018F8  6E58               	movwf	_rowloc^0,c
  1824                           
  1825                           ;teclado.c: 38: while(temp_col!=0xf0)
  1826  0018FA  EF82  F00C         	goto	l141
  1827  0018FE                     l2794:
  1828                           
  1829                           ;teclado.c: 39: {;teclado.c: 40: temp_col = PORTB & 0xf0;
  1830  0018FE  5081               	movf	129,w,c	;volatile
  1831  001900  0BF0               	andlw	240
  1832  001902  6E57               	movwf	_temp_col^0,c
  1833  001904                     l141:
  1834  001904  0EF0               	movlw	240
  1835  001906  1857               	xorwf	_temp_col^0,w,c
  1836  001908  A4D8               	btfss	status,2,c
  1837  00190A  EF89  F00C         	goto	u2731
  1838  00190E  EF8B  F00C         	goto	u2730
  1839  001912                     u2731:
  1840  001912  EF7F  F00C         	goto	l2794
  1841  001916                     u2730:
  1842  001916  EFF1  F00C         	goto	l2832
  1843  00191A                     l2796:
  1844                           
  1845                           ;teclado.c: 43: };teclado.c: 45: LATB = 0xfd;
  1846  00191A  0EFD               	movlw	253
  1847  00191C  6E8A               	movwf	138,c	;volatile
  1848  00191E                     
  1849                           ;teclado.c: 46: col_loc = PORTB & 0xf0;
  1850  00191E  5081               	movf	129,w,c	;volatile
  1851  001920  0BF0               	andlw	240
  1852  001922  6E59               	movwf	_col_loc^0,c
  1853  001924                     
  1854                           ;teclado.c: 47: temp_col=col_loc;
  1855  001924  C059  F057         	movff	_col_loc,_temp_col
  1856  001928                     
  1857                           ;teclado.c: 48: if(col_loc!=0xf0)
  1858  001928  0EF0               	movlw	240
  1859  00192A  1859               	xorwf	_col_loc^0,w,c
  1860  00192C  B4D8               	btfsc	status,2,c
  1861  00192E  EF9B  F00C         	goto	u2741
  1862  001932  EF9D  F00C         	goto	u2740
  1863  001936                     u2741:
  1864  001936  EFAF  F00C         	goto	l2808
  1865  00193A                     u2740:
  1866  00193A                     
  1867                           ;teclado.c: 49: {;teclado.c: 50: rowloc=1;
  1868  00193A  0E01               	movlw	1
  1869  00193C  6E58               	movwf	_rowloc^0,c
  1870                           
  1871                           ;teclado.c: 51: while(temp_col!=0xf0)
  1872  00193E  EFA4  F00C         	goto	l146
  1873  001942                     l2806:
  1874                           
  1875                           ;teclado.c: 52: {;teclado.c: 53: temp_col = PORTB & 0xf0;
  1876  001942  5081               	movf	129,w,c	;volatile
  1877  001944  0BF0               	andlw	240
  1878  001946  6E57               	movwf	_temp_col^0,c
  1879  001948                     l146:
  1880  001948  0EF0               	movlw	240
  1881  00194A  1857               	xorwf	_temp_col^0,w,c
  1882  00194C  A4D8               	btfss	status,2,c
  1883  00194E  EFAB  F00C         	goto	u2751
  1884  001952  EFAD  F00C         	goto	u2750
  1885  001956                     u2751:
  1886  001956  EFA1  F00C         	goto	l2806
  1887  00195A                     u2750:
  1888  00195A  EFF1  F00C         	goto	l2832
  1889  00195E                     l2808:
  1890                           
  1891                           ;teclado.c: 56: };teclado.c: 58: LATB = 0xfb;
  1892  00195E  0EFB               	movlw	251
  1893  001960  6E8A               	movwf	138,c	;volatile
  1894  001962                     
  1895                           ;teclado.c: 59: col_loc = PORTB & 0xf0;
  1896  001962  5081               	movf	129,w,c	;volatile
  1897  001964  0BF0               	andlw	240
  1898  001966  6E59               	movwf	_col_loc^0,c
  1899  001968                     
  1900                           ;teclado.c: 60: temp_col=col_loc;
  1901  001968  C059  F057         	movff	_col_loc,_temp_col
  1902  00196C                     
  1903                           ;teclado.c: 61: if(col_loc!=0xf0)
  1904  00196C  0EF0               	movlw	240
  1905  00196E  1859               	xorwf	_col_loc^0,w,c
  1906  001970  B4D8               	btfsc	status,2,c
  1907  001972  EFBD  F00C         	goto	u2761
  1908  001976  EFBF  F00C         	goto	u2760
  1909  00197A                     u2761:
  1910  00197A  EFD1  F00C         	goto	l2820
  1911  00197E                     u2760:
  1912  00197E                     
  1913                           ;teclado.c: 62: {;teclado.c: 63: rowloc=2;
  1914  00197E  0E02               	movlw	2
  1915  001980  6E58               	movwf	_rowloc^0,c
  1916                           
  1917                           ;teclado.c: 64: while(temp_col!=0xf0)
  1918  001982  EFC6  F00C         	goto	l150
  1919  001986                     l2818:
  1920                           
  1921                           ;teclado.c: 65: {;teclado.c: 66: temp_col = PORTB & 0xf0;
  1922  001986  5081               	movf	129,w,c	;volatile
  1923  001988  0BF0               	andlw	240
  1924  00198A  6E57               	movwf	_temp_col^0,c
  1925  00198C                     l150:
  1926  00198C  0EF0               	movlw	240
  1927  00198E  1857               	xorwf	_temp_col^0,w,c
  1928  001990  A4D8               	btfss	status,2,c
  1929  001992  EFCD  F00C         	goto	u2771
  1930  001996  EFCF  F00C         	goto	u2770
  1931  00199A                     u2771:
  1932  00199A  EFC3  F00C         	goto	l2818
  1933  00199E                     u2770:
  1934  00199E  EFF1  F00C         	goto	l2832
  1935  0019A2                     l2820:
  1936                           
  1937                           ;teclado.c: 69: };teclado.c: 71: LATB = 0xf7;
  1938  0019A2  0EF7               	movlw	247
  1939  0019A4  6E8A               	movwf	138,c	;volatile
  1940  0019A6                     
  1941                           ;teclado.c: 72: col_loc = PORTB & 0xf0;
  1942  0019A6  5081               	movf	129,w,c	;volatile
  1943  0019A8  0BF0               	andlw	240
  1944  0019AA  6E59               	movwf	_col_loc^0,c
  1945  0019AC                     
  1946                           ;teclado.c: 73: temp_col=col_loc;
  1947  0019AC  C059  F057         	movff	_col_loc,_temp_col
  1948  0019B0                     
  1949                           ;teclado.c: 74: if(col_loc!=0xf0)
  1950  0019B0  0EF0               	movlw	240
  1951  0019B2  1859               	xorwf	_col_loc^0,w,c
  1952  0019B4  B4D8               	btfsc	status,2,c
  1953  0019B6  EFDF  F00C         	goto	u2781
  1954  0019BA  EFE1  F00C         	goto	u2780
  1955  0019BE                     u2781:
  1956  0019BE  EF6B  F00C         	goto	l2784
  1957  0019C2                     u2780:
  1958  0019C2                     
  1959                           ;teclado.c: 75: {;teclado.c: 76: rowloc=3;
  1960  0019C2  0E03               	movlw	3
  1961  0019C4  6E58               	movwf	_rowloc^0,c
  1962                           
  1963                           ;teclado.c: 77: while(temp_col!=0xf0)
  1964  0019C6  EFE8  F00C         	goto	l154
  1965  0019CA                     l2830:
  1966                           
  1967                           ;teclado.c: 78: {;teclado.c: 79: temp_col = PORTB & 0xf0;
  1968  0019CA  5081               	movf	129,w,c	;volatile
  1969  0019CC  0BF0               	andlw	240
  1970  0019CE  6E57               	movwf	_temp_col^0,c
  1971  0019D0                     l154:
  1972  0019D0  0EF0               	movlw	240
  1973  0019D2  1857               	xorwf	_temp_col^0,w,c
  1974  0019D4  A4D8               	btfss	status,2,c
  1975  0019D6  EFEF  F00C         	goto	u2791
  1976  0019DA  EFF1  F00C         	goto	u2790
  1977  0019DE                     u2791:
  1978  0019DE  EFE5  F00C         	goto	l2830
  1979  0019E2                     u2790:
  1980  0019E2                     l2832:
  1981                           
  1982                           ;teclado.c: 89: {;teclado.c: 91: if(col_loc==0xe0)
  1983  0019E2  0EE0               	movlw	224
  1984  0019E4  1859               	xorwf	_col_loc^0,w,c
  1985  0019E6  A4D8               	btfss	status,2,c
  1986  0019E8  EFF8  F00C         	goto	u2801
  1987  0019EC  EFFA  F00C         	goto	u2800
  1988  0019F0                     u2801:
  1989  0019F0  EF10  F00D         	goto	l2842
  1990  0019F4                     u2800:
  1991  0019F4                     
  1992                           ;teclado.c: 92: {;teclado.c: 93: LCD_Char(keypad[rowloc][0]);
  1993  0019F4  5058               	movf	_rowloc^0,w,c
  1994  0019F6  0D04               	mullw	4
  1995  0019F8  0E47               	movlw	low _keypad
  1996  0019FA  24F3               	addwf	243,w,c
  1997  0019FC  6ED9               	movwf	fsr2l,c
  1998  0019FE  0E00               	movlw	high _keypad
  1999  001A00  20F4               	addwfc	prodh,w,c
  2000  001A02  6EDA               	movwf	fsr2h,c
  2001  001A04  50DF               	movf	indf2,w,c
  2002  001A06  EC65  F012         	call	_LCD_Char
  2003  001A0A                     
  2004                           ;teclado.c: 94: return keypad[rowloc][0];
  2005  001A0A  5058               	movf	_rowloc^0,w,c
  2006  001A0C  0D04               	mullw	4
  2007  001A0E  0E47               	movlw	low _keypad
  2008  001A10  24F3               	addwf	243,w,c
  2009  001A12  6ED9               	movwf	fsr2l,c
  2010  001A14  0E00               	movlw	high _keypad
  2011  001A16  20F4               	addwfc	prodh,w,c
  2012  001A18  6EDA               	movwf	fsr2h,c
  2013  001A1A  50DF               	movf	indf2,w,c
  2014  001A1C  EF62  F00D         	goto	l160
  2015  001A20                     l2842:
  2016                           
  2017                           ;teclado.c: 96: else;teclado.c: 97: if(col_loc==0xd0)
  2018  001A20  0ED0               	movlw	208
  2019  001A22  1859               	xorwf	_col_loc^0,w,c
  2020  001A24  A4D8               	btfss	status,2,c
  2021  001A26  EF17  F00D         	goto	u2811
  2022  001A2A  EF19  F00D         	goto	u2810
  2023  001A2E                     u2811:
  2024  001A2E  EF2F  F00D         	goto	l2852
  2025  001A32                     u2810:
  2026  001A32                     
  2027                           ;teclado.c: 98: {;teclado.c: 99: LCD_Char(keypad[rowloc][1]);
  2028  001A32  5058               	movf	_rowloc^0,w,c
  2029  001A34  0D04               	mullw	4
  2030  001A36  0E48               	movlw	low (_keypad+1)
  2031  001A38  24F3               	addwf	243,w,c
  2032  001A3A  6ED9               	movwf	fsr2l,c
  2033  001A3C  0E00               	movlw	high (_keypad+1)
  2034  001A3E  20F4               	addwfc	prodh,w,c
  2035  001A40  6EDA               	movwf	fsr2h,c
  2036  001A42  50DF               	movf	indf2,w,c
  2037  001A44  EC65  F012         	call	_LCD_Char
  2038  001A48                     
  2039                           ;teclado.c: 100: return keypad[rowloc][1];
  2040  001A48  5058               	movf	_rowloc^0,w,c
  2041  001A4A  0D04               	mullw	4
  2042  001A4C  0E48               	movlw	low (_keypad+1)
  2043  001A4E  24F3               	addwf	243,w,c
  2044  001A50  6ED9               	movwf	fsr2l,c
  2045  001A52  0E00               	movlw	high (_keypad+1)
  2046  001A54  20F4               	addwfc	prodh,w,c
  2047  001A56  6EDA               	movwf	fsr2h,c
  2048  001A58  50DF               	movf	indf2,w,c
  2049  001A5A  EF62  F00D         	goto	l160
  2050  001A5E                     l2852:
  2051                           
  2052                           ;teclado.c: 102: else;teclado.c: 103: if(col_loc==0xb0)
  2053  001A5E  0EB0               	movlw	176
  2054  001A60  1859               	xorwf	_col_loc^0,w,c
  2055  001A62  A4D8               	btfss	status,2,c
  2056  001A64  EF36  F00D         	goto	u2821
  2057  001A68  EF38  F00D         	goto	u2820
  2058  001A6C                     u2821:
  2059  001A6C  EF4E  F00D         	goto	l2862
  2060  001A70                     u2820:
  2061  001A70                     
  2062                           ;teclado.c: 104: {;teclado.c: 105: LCD_Char(keypad[rowloc][2]);
  2063  001A70  5058               	movf	_rowloc^0,w,c
  2064  001A72  0D04               	mullw	4
  2065  001A74  0E49               	movlw	low (_keypad+2)
  2066  001A76  24F3               	addwf	243,w,c
  2067  001A78  6ED9               	movwf	fsr2l,c
  2068  001A7A  0E00               	movlw	high (_keypad+2)
  2069  001A7C  20F4               	addwfc	prodh,w,c
  2070  001A7E  6EDA               	movwf	fsr2h,c
  2071  001A80  50DF               	movf	indf2,w,c
  2072  001A82  EC65  F012         	call	_LCD_Char
  2073  001A86                     
  2074                           ;teclado.c: 106: return keypad[rowloc][2];
  2075  001A86  5058               	movf	_rowloc^0,w,c
  2076  001A88  0D04               	mullw	4
  2077  001A8A  0E49               	movlw	low (_keypad+2)
  2078  001A8C  24F3               	addwf	243,w,c
  2079  001A8E  6ED9               	movwf	fsr2l,c
  2080  001A90  0E00               	movlw	high (_keypad+2)
  2081  001A92  20F4               	addwfc	prodh,w,c
  2082  001A94  6EDA               	movwf	fsr2h,c
  2083  001A96  50DF               	movf	indf2,w,c
  2084  001A98  EF62  F00D         	goto	l160
  2085  001A9C                     l2862:
  2086                           
  2087                           ;teclado.c: 108: else;teclado.c: 110: {;teclado.c: 111: LCD_Char(keypad[rowloc][3]);
  2088  001A9C  5058               	movf	_rowloc^0,w,c
  2089  001A9E  0D04               	mullw	4
  2090  001AA0  0E4A               	movlw	low (_keypad+3)
  2091  001AA2  24F3               	addwf	243,w,c
  2092  001AA4  6ED9               	movwf	fsr2l,c
  2093  001AA6  0E00               	movlw	high (_keypad+3)
  2094  001AA8  20F4               	addwfc	prodh,w,c
  2095  001AAA  6EDA               	movwf	fsr2h,c
  2096  001AAC  50DF               	movf	indf2,w,c
  2097  001AAE  EC65  F012         	call	_LCD_Char
  2098  001AB2                     
  2099                           ;teclado.c: 112: return keypad[rowloc][3];
  2100  001AB2  5058               	movf	_rowloc^0,w,c
  2101  001AB4  0D04               	mullw	4
  2102  001AB6  0E4A               	movlw	low (_keypad+3)
  2103  001AB8  24F3               	addwf	243,w,c
  2104  001ABA  6ED9               	movwf	fsr2l,c
  2105  001ABC  0E00               	movlw	high (_keypad+3)
  2106  001ABE  20F4               	addwfc	prodh,w,c
  2107  001AC0  6EDA               	movwf	fsr2h,c
  2108  001AC2  50DF               	movf	indf2,w,c
  2109  001AC4                     l160:
  2110  001AC4  0012               	return		;funcret
  2111  001AC6                     __end_of_keyfind:
  2112                           	opt callstack 0
  2113                           
  2114 ;; *************** function _display_float *****************
  2115 ;; Defined at:
  2116 ;;		line 138 in file "Calculadora.c"
  2117 ;; Parameters:    Size  Location     Type
  2118 ;;  div_result      4   32[COMRAM] unsigned char 
  2119 ;; Auto vars:     Size  Location     Type
  2120 ;;  output1        15   51[COMRAM] unsigned char [15]
  2121 ;;  output         15   36[COMRAM] unsigned char [15]
  2122 ;;  temp            4   66[COMRAM] float 
  2123 ;; Return value:  Size  Location     Type
  2124 ;;                  1    wreg      void 
  2125 ;; Registers used:
  2126 ;;		wreg, fsr2l, fsr2h, status,2, status,0, tblptrl, tblptrh, tblptru, prodl, prodh, cstack
  2127 ;; Tracked objects:
  2128 ;;		On entry : 0/0
  2129 ;;		On exit  : 0/0
  2130 ;;		Unchanged: 0/0
  2131 ;; Data sizes:     COMRAM   BANK0   BANK1   BANK2   BANK3   BANK4   BANK5   BANK6   BANK7
  2132 ;;      Params:         4       0       0       0       0       0       0       0       0
  2133 ;;      Locals:        34       0       0       0       0       0       0       0       0
  2134 ;;      Temps:          0       0       0       0       0       0       0       0       0
  2135 ;;      Totals:        38       0       0       0       0       0       0       0       0
  2136 ;;Total ram usage:       38 bytes
  2137 ;; Hardware stack levels used:    1
  2138 ;; Hardware stack levels required when called:    3
  2139 ;; This function calls:
  2140 ;;		_LCD_String
  2141 ;;		___flmul
  2142 ;;		___flsub
  2143 ;;		___fltol
  2144 ;;		___xxtofl
  2145 ;;		_itoa
  2146 ;; This function is called by:
  2147 ;;		_main
  2148 ;; This function uses a non-reentrant model
  2149 ;;
  2150                           
  2151                           	psect	text7
  2152  001DB4                     __ptext7:
  2153                           	opt callstack 0
  2154  001DB4                     _display_float:
  2155                           	opt callstack 27
  2156  001DB4                     
  2157                           ;Calculadora.c: 140: float temp;;Calculadora.c: 141: unsigned char output[15],output1[15
      +                          ];;Calculadora.c: 142: temp=div_result - ((int)div_result);
  2158  001DB4  C021  F019         	movff	display_float@div_result,___flsub@b
  2159  001DB8  C022  F01A         	movff	display_float@div_result+1,___flsub@b+1
  2160  001DBC  C023  F01B         	movff	display_float@div_result+2,___flsub@b+2
  2161  001DC0  C024  F01C         	movff	display_float@div_result+3,___flsub@b+3
  2162  001DC4  C021  F001         	movff	display_float@div_result,___fltol@f1
  2163  001DC8  C022  F002         	movff	display_float@div_result+1,___fltol@f1+1
  2164  001DCC  C023  F003         	movff	display_float@div_result+2,___fltol@f1+2
  2165  001DD0  C024  F004         	movff	display_float@div_result+3,___fltol@f1+3
  2166  001DD4  ECF1  F00F         	call	___fltol	;wreg free
  2167  001DD8  C001  F00B         	movff	?___fltol,___xxtofl@val
  2168  001DDC  C002  F00C         	movff	?___fltol+1,___xxtofl@val+1
  2169  001DE0  0E00               	movlw	0
  2170  001DE2  BE0C               	btfsc	(___xxtofl@val+1)^0,7,c
  2171  001DE4  0EFF               	movlw	-1
  2172  001DE6  6E0D               	movwf	(___xxtofl@val+2)^0,c
  2173  001DE8  6E0E               	movwf	(___xxtofl@val+3)^0,c
  2174  001DEA  0E01               	movlw	1
  2175  001DEC  EC63  F00D         	call	___xxtofl
  2176  001DF0  C00B  F01D         	movff	?___xxtofl,___flsub@a
  2177  001DF4  C00C  F01E         	movff	?___xxtofl+1,___flsub@a+1
  2178  001DF8  C00D  F01F         	movff	?___xxtofl+2,___flsub@a+2
  2179  001DFC  C00E  F020         	movff	?___xxtofl+3,___flsub@a+3
  2180  001E00  ECD6  F012         	call	___flsub	;wreg free
  2181  001E04  C019  F043         	movff	?___flsub,display_float@temp
  2182  001E08  C01A  F044         	movff	?___flsub+1,display_float@temp+1
  2183  001E0C  C01B  F045         	movff	?___flsub+2,display_float@temp+2
  2184  001E10  C01C  F046         	movff	?___flsub+3,display_float@temp+3
  2185  001E14                     
  2186                           ;Calculadora.c: 143: temp=100*temp;
  2187  001E14  C043  F001         	movff	display_float@temp,___flmul@b
  2188  001E18  C044  F002         	movff	display_float@temp+1,___flmul@b+1
  2189  001E1C  C045  F003         	movff	display_float@temp+2,___flmul@b+2
  2190  001E20  C046  F004         	movff	display_float@temp+3,___flmul@b+3
  2191  001E24  0E00               	movlw	0
  2192  001E26  6E05               	movwf	___flmul@a^0,c
  2193  001E28  0E00               	movlw	0
  2194  001E2A  6E06               	movwf	(___flmul@a+1)^0,c
  2195  001E2C  0EC8               	movlw	200
  2196  001E2E  6E07               	movwf	(___flmul@a+2)^0,c
  2197  001E30  0E42               	movlw	66
  2198  001E32  6E08               	movwf	(___flmul@a+3)^0,c
  2199  001E34  EC6F  F006         	call	___flmul	;wreg free
  2200  001E38  C001  F043         	movff	?___flmul,display_float@temp
  2201  001E3C  C002  F044         	movff	?___flmul+1,display_float@temp+1
  2202  001E40  C003  F045         	movff	?___flmul+2,display_float@temp+2
  2203  001E44  C004  F046         	movff	?___flmul+3,display_float@temp+3
  2204  001E48                     
  2205                           ;Calculadora.c: 144: itoa(output,(int)div_result,10);
  2206  001E48  0E25               	movlw	low display_float@output
  2207  001E4A  6E11               	movwf	itoa@buf^0,c
  2208  001E4C  0E00               	movlw	high display_float@output
  2209  001E4E  6E12               	movwf	(itoa@buf+1)^0,c
  2210  001E50  C021  F001         	movff	display_float@div_result,___fltol@f1
  2211  001E54  C022  F002         	movff	display_float@div_result+1,___fltol@f1+1
  2212  001E58  C023  F003         	movff	display_float@div_result+2,___fltol@f1+2
  2213  001E5C  C024  F004         	movff	display_float@div_result+3,___fltol@f1+3
  2214  001E60  ECF1  F00F         	call	___fltol	;wreg free
  2215  001E64  C001  F013         	movff	?___fltol,itoa@val
  2216  001E68  C002  F014         	movff	?___fltol+1,itoa@val+1
  2217  001E6C  0E00               	movlw	0
  2218  001E6E  6E16               	movwf	(itoa@base+1)^0,c
  2219  001E70  0E0A               	movlw	10
  2220  001E72  6E15               	movwf	itoa@base^0,c
  2221  001E74  ECF9  F012         	call	_itoa	;wreg free
  2222  001E78                     
  2223                           ;Calculadora.c: 145: LCD_String(output);
  2224  001E78  0E25               	movlw	low display_float@output
  2225  001E7A  6E09               	movwf	LCD_String@msg^0,c
  2226  001E7C  0E00               	movlw	high display_float@output
  2227  001E7E  6E0A               	movwf	(LCD_String@msg+1)^0,c
  2228  001E80  EC0C  F012         	call	_LCD_String	;wreg free
  2229  001E84                     
  2230                           ;Calculadora.c: 146: LCD_String(".");
  2231  001E84  0E1B               	movlw	low STR_4
  2232  001E86  6E09               	movwf	LCD_String@msg^0,c
  2233  001E88  0E08               	movlw	high STR_4
  2234  001E8A  6E0A               	movwf	(LCD_String@msg+1)^0,c
  2235  001E8C  EC0C  F012         	call	_LCD_String	;wreg free
  2236  001E90                     
  2237                           ;Calculadora.c: 147: itoa(output1,(int)temp,10);
  2238  001E90  0E34               	movlw	low display_float@output1
  2239  001E92  6E11               	movwf	itoa@buf^0,c
  2240  001E94  0E00               	movlw	high display_float@output1
  2241  001E96  6E12               	movwf	(itoa@buf+1)^0,c
  2242  001E98  C043  F001         	movff	display_float@temp,___fltol@f1
  2243  001E9C  C044  F002         	movff	display_float@temp+1,___fltol@f1+1
  2244  001EA0  C045  F003         	movff	display_float@temp+2,___fltol@f1+2
  2245  001EA4  C046  F004         	movff	display_float@temp+3,___fltol@f1+3
  2246  001EA8  ECF1  F00F         	call	___fltol	;wreg free
  2247  001EAC  C001  F013         	movff	?___fltol,itoa@val
  2248  001EB0  C002  F014         	movff	?___fltol+1,itoa@val+1
  2249  001EB4  0E00               	movlw	0
  2250  001EB6  6E16               	movwf	(itoa@base+1)^0,c
  2251  001EB8  0E0A               	movlw	10
  2252  001EBA  6E15               	movwf	itoa@base^0,c
  2253  001EBC  ECF9  F012         	call	_itoa	;wreg free
  2254  001EC0                     
  2255                           ;Calculadora.c: 148: LCD_String(output1);
  2256  001EC0  0E34               	movlw	low display_float@output1
  2257  001EC2  6E09               	movwf	LCD_String@msg^0,c
  2258  001EC4  0E00               	movlw	high display_float@output1
  2259  001EC6  6E0A               	movwf	(LCD_String@msg+1)^0,c
  2260  001EC8  EC0C  F012         	call	_LCD_String	;wreg free
  2261  001ECC  0012               	return		;funcret
  2262  001ECE                     __end_of_display_float:
  2263                           	opt callstack 0
  2264                           
  2265 ;; *************** function _itoa *****************
  2266 ;; Defined at:
  2267 ;;		line 4 in file "C:\Program Files (x86)\Microchip\xc8\v2.10\pic\sources\c90\common\itoa.c"
  2268 ;; Parameters:    Size  Location     Type
  2269 ;;  buf             2   16[COMRAM] PTR unsigned char 
  2270 ;;		 -> display_float@output1(15), display_float@output(15), 
  2271 ;;  val             2   18[COMRAM] int 
  2272 ;;  base            2   20[COMRAM] int 
  2273 ;; Auto vars:     Size  Location     Type
  2274 ;;  cp              2    0        PTR unsigned char 
  2275 ;;		 -> display_float@output1(15), display_float@output(15), 
  2276 ;; Return value:  Size  Location     Type
  2277 ;;                  2   16[COMRAM] PTR unsigned char 
  2278 ;; Registers used:
  2279 ;;		wreg, fsr2l, fsr2h, status,2, status,0, cstack
  2280 ;; Tracked objects:
  2281 ;;		On entry : 0/0
  2282 ;;		On exit  : 0/0
  2283 ;;		Unchanged: 0/0
  2284 ;; Data sizes:     COMRAM   BANK0   BANK1   BANK2   BANK3   BANK4   BANK5   BANK6   BANK7
  2285 ;;      Params:         6       0       0       0       0       0       0       0       0
  2286 ;;      Locals:         2       0       0       0       0       0       0       0       0
  2287 ;;      Temps:          0       0       0       0       0       0       0       0       0
  2288 ;;      Totals:         8       0       0       0       0       0       0       0       0
  2289 ;;Total ram usage:        8 bytes
  2290 ;; Hardware stack levels used:    1
  2291 ;; Hardware stack levels required when called:    2
  2292 ;; This function calls:
  2293 ;;		_utoa
  2294 ;; This function is called by:
  2295 ;;		_display_float
  2296 ;; This function uses a non-reentrant model
  2297 ;;
  2298                           
  2299                           	psect	text8
  2300  0025F2                     __ptext8:
  2301                           	opt callstack 0
  2302  0025F2                     _itoa:
  2303                           	opt callstack 27
  2304  0025F2  BE14               	btfsc	(itoa@val+1)^0,7,c
  2305  0025F4  EF00  F013         	goto	u2230
  2306  0025F8  EFFE  F012         	goto	u2231
  2307  0025FC                     u2231:
  2308  0025FC  EF0C  F013         	goto	l2456
  2309  002600                     u2230:
  2310  002600  C011  FFD9         	movff	itoa@buf,fsr2l
  2311  002604  C012  FFDA         	movff	itoa@buf+1,fsr2h
  2312  002608  0E2D               	movlw	45
  2313  00260A  6EDF               	movwf	indf2,c
  2314  00260C  4A11               	infsnz	itoa@buf^0,f,c
  2315  00260E  2A12               	incf	(itoa@buf+1)^0,f,c
  2316  002610  6C13               	negf	itoa@val^0,c
  2317  002612  1E14               	comf	(itoa@val+1)^0,f,c
  2318  002614  B0D8               	btfsc	status,0,c
  2319  002616  2A14               	incf	(itoa@val+1)^0,f,c
  2320  002618                     l2456:
  2321  002618  C011  F008         	movff	itoa@buf,utoa@buf
  2322  00261C  C012  F009         	movff	itoa@buf+1,utoa@buf+1
  2323  002620  C013  F00A         	movff	itoa@val,utoa@val
  2324  002624  C014  F00B         	movff	itoa@val+1,utoa@val+1
  2325  002628  C015  F00C         	movff	itoa@base,utoa@base
  2326  00262C  C016  F00D         	movff	itoa@base+1,utoa@base+1
  2327  002630  EC74  F010         	call	_utoa	;wreg free
  2328  002634  0012               	return		;funcret
  2329  002636                     __end_of_itoa:
  2330                           	opt callstack 0
  2331                           
  2332 ;; *************** function _utoa *****************
  2333 ;; Defined at:
  2334 ;;		line 17 in file "C:\Program Files (x86)\Microchip\xc8\v2.10\pic\sources\c90\common\itoa.c"
  2335 ;; Parameters:    Size  Location     Type
  2336 ;;  buf             2    7[COMRAM] PTR unsigned char 
  2337 ;;		 -> display_float@output1(15), display_float@output(15), 
  2338 ;;  val             2    9[COMRAM] unsigned int 
  2339 ;;  base            2   11[COMRAM] int 
  2340 ;; Auto vars:     Size  Location     Type
  2341 ;;  v               2   13[COMRAM] unsigned int 
  2342 ;;  c               1   15[COMRAM] unsigned char 
  2343 ;; Return value:  Size  Location     Type
  2344 ;;                  2    7[COMRAM] PTR unsigned char 
  2345 ;; Registers used:
  2346 ;;		wreg, fsr2l, fsr2h, status,2, status,0, cstack
  2347 ;; Tracked objects:
  2348 ;;		On entry : 0/0
  2349 ;;		On exit  : 0/0
  2350 ;;		Unchanged: 0/0
  2351 ;; Data sizes:     COMRAM   BANK0   BANK1   BANK2   BANK3   BANK4   BANK5   BANK6   BANK7
  2352 ;;      Params:         6       0       0       0       0       0       0       0       0
  2353 ;;      Locals:         3       0       0       0       0       0       0       0       0
  2354 ;;      Temps:          0       0       0       0       0       0       0       0       0
  2355 ;;      Totals:         9       0       0       0       0       0       0       0       0
  2356 ;;Total ram usage:        9 bytes
  2357 ;; Hardware stack levels used:    1
  2358 ;; Hardware stack levels required when called:    1
  2359 ;; This function calls:
  2360 ;;		___lwdiv
  2361 ;;		___lwmod
  2362 ;; This function is called by:
  2363 ;;		_itoa
  2364 ;; This function uses a non-reentrant model
  2365 ;;
  2366                           
  2367                           	psect	text9
  2368  0020E8                     __ptext9:
  2369                           	opt callstack 0
  2370  0020E8                     _utoa:
  2371                           	opt callstack 27
  2372  0020E8  C00A  F00E         	movff	utoa@val,utoa@v
  2373  0020EC  C00B  F00F         	movff	utoa@val+1,utoa@v+1
  2374  0020F0                     l2392:
  2375  0020F0  C00E  F001         	movff	utoa@v,___lwdiv@dividend
  2376  0020F4  C00F  F002         	movff	utoa@v+1,___lwdiv@dividend+1
  2377  0020F8  C00C  F003         	movff	utoa@base,___lwdiv@divisor
  2378  0020FC  C00D  F004         	movff	utoa@base+1,___lwdiv@divisor+1
  2379  002100  EC6B  F011         	call	___lwdiv	;wreg free
  2380  002104  C001  F00E         	movff	?___lwdiv,utoa@v
  2381  002108  C002  F00F         	movff	?___lwdiv+1,utoa@v+1
  2382  00210C  4A08               	infsnz	utoa@buf^0,f,c
  2383  00210E  2A09               	incf	(utoa@buf+1)^0,f,c
  2384  002110  500E               	movf	utoa@v^0,w,c
  2385  002112  100F               	iorwf	(utoa@v+1)^0,w,c
  2386  002114  A4D8               	btfss	status,2,c
  2387  002116  EF8F  F010         	goto	u2171
  2388  00211A  EF91  F010         	goto	u2170
  2389  00211E                     u2171:
  2390  00211E  EF78  F010         	goto	l2392
  2391  002122                     u2170:
  2392  002122  C008  FFD9         	movff	utoa@buf,fsr2l
  2393  002126  C009  FFDA         	movff	utoa@buf+1,fsr2h
  2394  00212A  0E00               	movlw	0
  2395  00212C  6EDF               	movwf	indf2,c
  2396  00212E  0608               	decf	utoa@buf^0,f,c
  2397  002130  A0D8               	btfss	status,0,c
  2398  002132  0609               	decf	(utoa@buf+1)^0,f,c
  2399  002134                     l2402:
  2400  002134  C00A  F001         	movff	utoa@val,___lwmod@dividend
  2401  002138  C00B  F002         	movff	utoa@val+1,___lwmod@dividend+1
  2402  00213C  C00C  F003         	movff	utoa@base,___lwmod@divisor
  2403  002140  C00D  F004         	movff	utoa@base+1,___lwmod@divisor+1
  2404  002144  ECDA  F011         	call	___lwmod	;wreg free
  2405  002148  5001               	movf	?___lwmod^0,w,c
  2406  00214A  6E10               	movwf	utoa@c^0,c
  2407  00214C  C00A  F001         	movff	utoa@val,___lwdiv@dividend
  2408  002150  C00B  F002         	movff	utoa@val+1,___lwdiv@dividend+1
  2409  002154  C00C  F003         	movff	utoa@base,___lwdiv@divisor
  2410  002158  C00D  F004         	movff	utoa@base+1,___lwdiv@divisor+1
  2411  00215C  EC6B  F011         	call	___lwdiv	;wreg free
  2412  002160  C001  F00A         	movff	?___lwdiv,utoa@val
  2413  002164  C002  F00B         	movff	?___lwdiv+1,utoa@val+1
  2414  002168  0E09               	movlw	9
  2415  00216A  6410               	cpfsgt	utoa@c^0,c
  2416  00216C  EFBA  F010         	goto	u2181
  2417  002170  EFBC  F010         	goto	u2180
  2418  002174                     u2181:
  2419  002174  EFBE  F010         	goto	l860
  2420  002178                     u2180:
  2421  002178  0E07               	movlw	7
  2422  00217A  2610               	addwf	utoa@c^0,f,c
  2423  00217C                     l860:
  2424  00217C  0E30               	movlw	48
  2425  00217E  2610               	addwf	utoa@c^0,f,c
  2426  002180  C008  FFD9         	movff	utoa@buf,fsr2l
  2427  002184  C009  FFDA         	movff	utoa@buf+1,fsr2h
  2428  002188  C010  FFDF         	movff	utoa@c,indf2
  2429  00218C  0608               	decf	utoa@buf^0,f,c
  2430  00218E  A0D8               	btfss	status,0,c
  2431  002190  0609               	decf	(utoa@buf+1)^0,f,c
  2432  002192  500A               	movf	utoa@val^0,w,c
  2433  002194  100B               	iorwf	(utoa@val+1)^0,w,c
  2434  002196  A4D8               	btfss	status,2,c
  2435  002198  EFD0  F010         	goto	u2191
  2436  00219C  EFD2  F010         	goto	u2190
  2437  0021A0                     u2191:
  2438  0021A0  EF9A  F010         	goto	l2402
  2439  0021A4                     u2190:
  2440  0021A4                     
  2441                           ;	Return value of _utoa is never used
  2442  0021A4  4A08               	infsnz	utoa@buf^0,f,c
  2443  0021A6  2A09               	incf	(utoa@buf+1)^0,f,c
  2444  0021A8  0012               	return		;funcret
  2445  0021AA                     __end_of_utoa:
  2446                           	opt callstack 0
  2447                           
  2448 ;; *************** function ___lwmod *****************
  2449 ;; Defined at:
  2450 ;;		line 7 in file "C:\Program Files (x86)\Microchip\xc8\v2.10\pic\sources\c90\common\lwmod.c"
  2451 ;; Parameters:    Size  Location     Type
  2452 ;;  dividend        2    0[COMRAM] unsigned int 
  2453 ;;  divisor         2    2[COMRAM] unsigned int 
  2454 ;; Auto vars:     Size  Location     Type
  2455 ;;  counter         1    4[COMRAM] unsigned char 
  2456 ;; Return value:  Size  Location     Type
  2457 ;;                  2    0[COMRAM] unsigned int 
  2458 ;; Registers used:
  2459 ;;		wreg, status,2, status,0
  2460 ;; Tracked objects:
  2461 ;;		On entry : 0/0
  2462 ;;		On exit  : 0/0
  2463 ;;		Unchanged: 0/0
  2464 ;; Data sizes:     COMRAM   BANK0   BANK1   BANK2   BANK3   BANK4   BANK5   BANK6   BANK7
  2465 ;;      Params:         4       0       0       0       0       0       0       0       0
  2466 ;;      Locals:         1       0       0       0       0       0       0       0       0
  2467 ;;      Temps:          0       0       0       0       0       0       0       0       0
  2468 ;;      Totals:         5       0       0       0       0       0       0       0       0
  2469 ;;Total ram usage:        5 bytes
  2470 ;; Hardware stack levels used:    1
  2471 ;; This function calls:
  2472 ;;		Nothing
  2473 ;; This function is called by:
  2474 ;;		_utoa
  2475 ;; This function uses a non-reentrant model
  2476 ;;
  2477                           
  2478                           	psect	text10
  2479  0023B4                     __ptext10:
  2480                           	opt callstack 0
  2481  0023B4                     ___lwmod:
  2482                           	opt callstack 27
  2483  0023B4  5003               	movf	___lwmod@divisor^0,w,c
  2484  0023B6  1004               	iorwf	(___lwmod@divisor+1)^0,w,c
  2485  0023B8  B4D8               	btfsc	status,2,c
  2486  0023BA  EFE1  F011         	goto	u1691
  2487  0023BE  EFE3  F011         	goto	u1690
  2488  0023C2                     u1691:
  2489  0023C2  EF07  F012         	goto	l659
  2490  0023C6                     u1690:
  2491  0023C6  0E01               	movlw	1
  2492  0023C8  6E05               	movwf	___lwmod@counter^0,c
  2493  0023CA  EFEB  F011         	goto	l2120
  2494  0023CE                     l2118:
  2495  0023CE  90D8               	bcf	status,0,c
  2496  0023D0  3603               	rlcf	___lwmod@divisor^0,f,c
  2497  0023D2  3604               	rlcf	(___lwmod@divisor+1)^0,f,c
  2498  0023D4  2A05               	incf	___lwmod@counter^0,f,c
  2499  0023D6                     l2120:
  2500  0023D6  AE04               	btfss	(___lwmod@divisor+1)^0,7,c
  2501  0023D8  EFF0  F011         	goto	u1701
  2502  0023DC  EFF2  F011         	goto	u1700
  2503  0023E0                     u1701:
  2504  0023E0  EFE7  F011         	goto	l2118
  2505  0023E4                     u1700:
  2506  0023E4                     l2122:
  2507  0023E4  5003               	movf	___lwmod@divisor^0,w,c
  2508  0023E6  5C01               	subwf	___lwmod@dividend^0,w,c
  2509  0023E8  5004               	movf	(___lwmod@divisor+1)^0,w,c
  2510  0023EA  5802               	subwfb	(___lwmod@dividend+1)^0,w,c
  2511  0023EC  A0D8               	btfss	status,0,c
  2512  0023EE  EFFB  F011         	goto	u1711
  2513  0023F2  EFFD  F011         	goto	u1710
  2514  0023F6                     u1711:
  2515  0023F6  EF01  F012         	goto	l2126
  2516  0023FA                     u1710:
  2517  0023FA  5003               	movf	___lwmod@divisor^0,w,c
  2518  0023FC  5E01               	subwf	___lwmod@dividend^0,f,c
  2519  0023FE  5004               	movf	(___lwmod@divisor+1)^0,w,c
  2520  002400  5A02               	subwfb	(___lwmod@dividend+1)^0,f,c
  2521  002402                     l2126:
  2522  002402  90D8               	bcf	status,0,c
  2523  002404  3204               	rrcf	(___lwmod@divisor+1)^0,f,c
  2524  002406  3203               	rrcf	___lwmod@divisor^0,f,c
  2525  002408  2E05               	decfsz	___lwmod@counter^0,f,c
  2526  00240A  EFF2  F011         	goto	l2122
  2527  00240E                     l659:
  2528  00240E  C001  F001         	movff	___lwmod@dividend,?___lwmod
  2529  002412  C002  F002         	movff	___lwmod@dividend+1,?___lwmod+1
  2530  002416  0012               	return		;funcret
  2531  002418                     __end_of___lwmod:
  2532                           	opt callstack 0
  2533                           
  2534 ;; *************** function ___lwdiv *****************
  2535 ;; Defined at:
  2536 ;;		line 7 in file "C:\Program Files (x86)\Microchip\xc8\v2.10\pic\sources\c90\common\lwdiv.c"
  2537 ;; Parameters:    Size  Location     Type
  2538 ;;  dividend        2    0[COMRAM] unsigned int 
  2539 ;;  divisor         2    2[COMRAM] unsigned int 
  2540 ;; Auto vars:     Size  Location     Type
  2541 ;;  quotient        2    4[COMRAM] unsigned int 
  2542 ;;  counter         1    6[COMRAM] unsigned char 
  2543 ;; Return value:  Size  Location     Type
  2544 ;;                  2    0[COMRAM] unsigned int 
  2545 ;; Registers used:
  2546 ;;		wreg, status,2, status,0
  2547 ;; Tracked objects:
  2548 ;;		On entry : 0/0
  2549 ;;		On exit  : 0/0
  2550 ;;		Unchanged: 0/0
  2551 ;; Data sizes:     COMRAM   BANK0   BANK1   BANK2   BANK3   BANK4   BANK5   BANK6   BANK7
  2552 ;;      Params:         4       0       0       0       0       0       0       0       0
  2553 ;;      Locals:         3       0       0       0       0       0       0       0       0
  2554 ;;      Temps:          0       0       0       0       0       0       0       0       0
  2555 ;;      Totals:         7       0       0       0       0       0       0       0       0
  2556 ;;Total ram usage:        7 bytes
  2557 ;; Hardware stack levels used:    1
  2558 ;; This function calls:
  2559 ;;		Nothing
  2560 ;; This function is called by:
  2561 ;;		_utoa
  2562 ;; This function uses a non-reentrant model
  2563 ;;
  2564                           
  2565                           	psect	text11
  2566  0022D6                     __ptext11:
  2567                           	opt callstack 0
  2568  0022D6                     ___lwdiv:
  2569                           	opt callstack 27
  2570  0022D6  0E00               	movlw	0
  2571  0022D8  6E06               	movwf	(___lwdiv@quotient+1)^0,c
  2572  0022DA  0E00               	movlw	0
  2573  0022DC  6E05               	movwf	___lwdiv@quotient^0,c
  2574  0022DE  5003               	movf	___lwdiv@divisor^0,w,c
  2575  0022E0  1004               	iorwf	(___lwdiv@divisor+1)^0,w,c
  2576  0022E2  B4D8               	btfsc	status,2,c
  2577  0022E4  EF76  F011         	goto	u1661
  2578  0022E8  EF78  F011         	goto	u1660
  2579  0022EC                     u1661:
  2580  0022EC  EFA0  F011         	goto	l649
  2581  0022F0                     u1660:
  2582  0022F0  0E01               	movlw	1
  2583  0022F2  6E07               	movwf	___lwdiv@counter^0,c
  2584  0022F4  EF80  F011         	goto	l2100
  2585  0022F8                     l2098:
  2586  0022F8  90D8               	bcf	status,0,c
  2587  0022FA  3603               	rlcf	___lwdiv@divisor^0,f,c
  2588  0022FC  3604               	rlcf	(___lwdiv@divisor+1)^0,f,c
  2589  0022FE  2A07               	incf	___lwdiv@counter^0,f,c
  2590  002300                     l2100:
  2591  002300  AE04               	btfss	(___lwdiv@divisor+1)^0,7,c
  2592  002302  EF85  F011         	goto	u1671
  2593  002306  EF87  F011         	goto	u1670
  2594  00230A                     u1671:
  2595  00230A  EF7C  F011         	goto	l2098
  2596  00230E                     u1670:
  2597  00230E                     l2102:
  2598  00230E  90D8               	bcf	status,0,c
  2599  002310  3605               	rlcf	___lwdiv@quotient^0,f,c
  2600  002312  3606               	rlcf	(___lwdiv@quotient+1)^0,f,c
  2601  002314  5003               	movf	___lwdiv@divisor^0,w,c
  2602  002316  5C01               	subwf	___lwdiv@dividend^0,w,c
  2603  002318  5004               	movf	(___lwdiv@divisor+1)^0,w,c
  2604  00231A  5802               	subwfb	(___lwdiv@dividend+1)^0,w,c
  2605  00231C  A0D8               	btfss	status,0,c
  2606  00231E  EF93  F011         	goto	u1681
  2607  002322  EF95  F011         	goto	u1680
  2608  002326                     u1681:
  2609  002326  EF9A  F011         	goto	l2110
  2610  00232A                     u1680:
  2611  00232A  5003               	movf	___lwdiv@divisor^0,w,c
  2612  00232C  5E01               	subwf	___lwdiv@dividend^0,f,c
  2613  00232E  5004               	movf	(___lwdiv@divisor+1)^0,w,c
  2614  002330  5A02               	subwfb	(___lwdiv@dividend+1)^0,f,c
  2615  002332  8005               	bsf	___lwdiv@quotient^0,0,c
  2616  002334                     l2110:
  2617  002334  90D8               	bcf	status,0,c
  2618  002336  3204               	rrcf	(___lwdiv@divisor+1)^0,f,c
  2619  002338  3203               	rrcf	___lwdiv@divisor^0,f,c
  2620  00233A  2E07               	decfsz	___lwdiv@counter^0,f,c
  2621  00233C  EF87  F011         	goto	l2102
  2622  002340                     l649:
  2623  002340  C005  F001         	movff	___lwdiv@quotient,?___lwdiv
  2624  002344  C006  F002         	movff	___lwdiv@quotient+1,?___lwdiv+1
  2625  002348  0012               	return		;funcret
  2626  00234A                     __end_of___lwdiv:
  2627                           	opt callstack 0
  2628                           
  2629 ;; *************** function ___xxtofl *****************
  2630 ;; Defined at:
  2631 ;;		line 10 in file "C:\Program Files (x86)\Microchip\xc8\v2.10\pic\sources\c90\common\xxtofl.c"
  2632 ;; Parameters:    Size  Location     Type
  2633 ;;  sign            1    wreg     unsigned char 
  2634 ;;  val             4   10[COMRAM] long 
  2635 ;; Auto vars:     Size  Location     Type
  2636 ;;  sign            1   18[COMRAM] unsigned char 
  2637 ;;  arg             4   20[COMRAM] unsigned long 
  2638 ;;  exp             1   19[COMRAM] unsigned char 
  2639 ;; Return value:  Size  Location     Type
  2640 ;;                  4   10[COMRAM] unsigned char 
  2641 ;; Registers used:
  2642 ;;		wreg, status,2, status,0
  2643 ;; Tracked objects:
  2644 ;;		On entry : 0/0
  2645 ;;		On exit  : 0/0
  2646 ;;		Unchanged: 0/0
  2647 ;; Data sizes:     COMRAM   BANK0   BANK1   BANK2   BANK3   BANK4   BANK5   BANK6   BANK7
  2648 ;;      Params:         4       0       0       0       0       0       0       0       0
  2649 ;;      Locals:         6       0       0       0       0       0       0       0       0
  2650 ;;      Temps:          4       0       0       0       0       0       0       0       0
  2651 ;;      Totals:        14       0       0       0       0       0       0       0       0
  2652 ;;Total ram usage:       14 bytes
  2653 ;; Hardware stack levels used:    1
  2654 ;; This function calls:
  2655 ;;		Nothing
  2656 ;; This function is called by:
  2657 ;;		_main
  2658 ;;		_display_float
  2659 ;; This function uses a non-reentrant model
  2660 ;;
  2661                           
  2662                           	psect	text12
  2663  001AC6                     __ptext12:
  2664                           	opt callstack 0
  2665  001AC6                     ___xxtofl:
  2666                           	opt callstack 29
  2667                           
  2668                           ;incstack = 0
  2669                           ;___xxtofl@sign stored from wreg
  2670  001AC6  6E13               	movwf	___xxtofl@sign^0,c
  2671  001AC8  5013               	movf	___xxtofl@sign^0,w,c
  2672  001ACA  B4D8               	btfsc	status,2,c
  2673  001ACC  EF6A  F00D         	goto	u2521
  2674  001AD0  EF6C  F00D         	goto	u2520
  2675  001AD4                     u2521:
  2676  001AD4  EF8E  F00D         	goto	l813
  2677  001AD8                     u2520:
  2678  001AD8  BE0E               	btfsc	(___xxtofl@val+3)^0,7,c
  2679  001ADA  EF73  F00D         	goto	u2530
  2680  001ADE  EF71  F00D         	goto	u2531
  2681  001AE2                     u2531:
  2682  001AE2  EF8E  F00D         	goto	l813
  2683  001AE6                     u2530:
  2684  001AE6  C00B  F00F         	movff	___xxtofl@val,??___xxtofl
  2685  001AEA  C00C  F010         	movff	___xxtofl@val+1,??___xxtofl+1
  2686  001AEE  C00D  F011         	movff	___xxtofl@val+2,??___xxtofl+2
  2687  001AF2  C00E  F012         	movff	___xxtofl@val+3,??___xxtofl+3
  2688  001AF6  1E0F               	comf	??___xxtofl^0,f,c
  2689  001AF8  1E10               	comf	(??___xxtofl+1)^0,f,c
  2690  001AFA  1E11               	comf	(??___xxtofl+2)^0,f,c
  2691  001AFC  1E12               	comf	(??___xxtofl+3)^0,f,c
  2692  001AFE  2A0F               	incf	??___xxtofl^0,f,c
  2693  001B00  0E00               	movlw	0
  2694  001B02  2210               	addwfc	(??___xxtofl+1)^0,f,c
  2695  001B04  2211               	addwfc	(??___xxtofl+2)^0,f,c
  2696  001B06  2212               	addwfc	(??___xxtofl+3)^0,f,c
  2697  001B08  C00F  F015         	movff	??___xxtofl,___xxtofl@arg
  2698  001B0C  C010  F016         	movff	??___xxtofl+1,___xxtofl@arg+1
  2699  001B10  C011  F017         	movff	??___xxtofl+2,___xxtofl@arg+2
  2700  001B14  C012  F018         	movff	??___xxtofl+3,___xxtofl@arg+3
  2701  001B18  EF96  F00D         	goto	l2656
  2702  001B1C                     l813:
  2703  001B1C  C00B  F015         	movff	___xxtofl@val,___xxtofl@arg
  2704  001B20  C00C  F016         	movff	___xxtofl@val+1,___xxtofl@arg+1
  2705  001B24  C00D  F017         	movff	___xxtofl@val+2,___xxtofl@arg+2
  2706  001B28  C00E  F018         	movff	___xxtofl@val+3,___xxtofl@arg+3
  2707  001B2C                     l2656:
  2708  001B2C  500B               	movf	___xxtofl@val^0,w,c
  2709  001B2E  100C               	iorwf	(___xxtofl@val+1)^0,w,c
  2710  001B30  100D               	iorwf	(___xxtofl@val+2)^0,w,c
  2711  001B32  100E               	iorwf	(___xxtofl@val+3)^0,w,c
  2712  001B34  A4D8               	btfss	status,2,c
  2713  001B36  EF9F  F00D         	goto	u2541
  2714  001B3A  EFA1  F00D         	goto	u2540
  2715  001B3E                     u2541:
  2716  001B3E  EFAB  F00D         	goto	l2662
  2717  001B42                     u2540:
  2718  001B42  0E00               	movlw	0
  2719  001B44  6E0B               	movwf	?___xxtofl^0,c
  2720  001B46  0E00               	movlw	0
  2721  001B48  6E0C               	movwf	(?___xxtofl+1)^0,c
  2722  001B4A  0E00               	movlw	0
  2723  001B4C  6E0D               	movwf	(?___xxtofl+2)^0,c
  2724  001B4E  0E00               	movlw	0
  2725  001B50  6E0E               	movwf	(?___xxtofl+3)^0,c
  2726  001B52  EF3C  F00E         	goto	l816
  2727  001B56                     l2662:
  2728  001B56  0E96               	movlw	150
  2729  001B58  6E14               	movwf	___xxtofl@exp^0,c
  2730  001B5A  EFB5  F00D         	goto	l2666
  2731  001B5E                     l2664:
  2732  001B5E  2A14               	incf	___xxtofl@exp^0,f,c
  2733  001B60  90D8               	bcf	status,0,c
  2734  001B62  3218               	rrcf	(___xxtofl@arg+3)^0,f,c
  2735  001B64  3217               	rrcf	(___xxtofl@arg+2)^0,f,c
  2736  001B66  3216               	rrcf	(___xxtofl@arg+1)^0,f,c
  2737  001B68  3215               	rrcf	___xxtofl@arg^0,f,c
  2738  001B6A                     l2666:
  2739  001B6A  0E00               	movlw	0
  2740  001B6C  1415               	andwf	___xxtofl@arg^0,w,c
  2741  001B6E  6E0F               	movwf	??___xxtofl^0,c
  2742  001B70  0E00               	movlw	0
  2743  001B72  1416               	andwf	(___xxtofl@arg+1)^0,w,c
  2744  001B74  6E10               	movwf	(??___xxtofl+1)^0,c
  2745  001B76  0E00               	movlw	0
  2746  001B78  1417               	andwf	(___xxtofl@arg+2)^0,w,c
  2747  001B7A  6E11               	movwf	(??___xxtofl+2)^0,c
  2748  001B7C  0EFE               	movlw	254
  2749  001B7E  1418               	andwf	(___xxtofl@arg+3)^0,w,c
  2750  001B80  6E12               	movwf	(??___xxtofl+3)^0,c
  2751  001B82  500F               	movf	??___xxtofl^0,w,c
  2752  001B84  1010               	iorwf	(??___xxtofl+1)^0,w,c
  2753  001B86  1011               	iorwf	(??___xxtofl+2)^0,w,c
  2754  001B88  1012               	iorwf	(??___xxtofl+3)^0,w,c
  2755  001B8A  A4D8               	btfss	status,2,c
  2756  001B8C  EFCA  F00D         	goto	u2551
  2757  001B90  EFCC  F00D         	goto	u2550
  2758  001B94                     u2551:
  2759  001B94  EFAF  F00D         	goto	l2664
  2760  001B98                     u2550:
  2761  001B98  EFDA  F00D         	goto	l820
  2762  001B9C                     l2668:
  2763  001B9C  2A14               	incf	___xxtofl@exp^0,f,c
  2764  001B9E  0E01               	movlw	1
  2765  001BA0  2615               	addwf	___xxtofl@arg^0,f,c
  2766  001BA2  0E00               	movlw	0
  2767  001BA4  2216               	addwfc	(___xxtofl@arg+1)^0,f,c
  2768  001BA6  2217               	addwfc	(___xxtofl@arg+2)^0,f,c
  2769  001BA8  2218               	addwfc	(___xxtofl@arg+3)^0,f,c
  2770  001BAA  90D8               	bcf	status,0,c
  2771  001BAC  3218               	rrcf	(___xxtofl@arg+3)^0,f,c
  2772  001BAE  3217               	rrcf	(___xxtofl@arg+2)^0,f,c
  2773  001BB0  3216               	rrcf	(___xxtofl@arg+1)^0,f,c
  2774  001BB2  3215               	rrcf	___xxtofl@arg^0,f,c
  2775  001BB4                     l820:
  2776  001BB4  0E00               	movlw	0
  2777  001BB6  1415               	andwf	___xxtofl@arg^0,w,c
  2778  001BB8  6E0F               	movwf	??___xxtofl^0,c
  2779  001BBA  0E00               	movlw	0
  2780  001BBC  1416               	andwf	(___xxtofl@arg+1)^0,w,c
  2781  001BBE  6E10               	movwf	(??___xxtofl+1)^0,c
  2782  001BC0  0E00               	movlw	0
  2783  001BC2  1417               	andwf	(___xxtofl@arg+2)^0,w,c
  2784  001BC4  6E11               	movwf	(??___xxtofl+2)^0,c
  2785  001BC6  0EFF               	movlw	255
  2786  001BC8  1418               	andwf	(___xxtofl@arg+3)^0,w,c
  2787  001BCA  6E12               	movwf	(??___xxtofl+3)^0,c
  2788  001BCC  500F               	movf	??___xxtofl^0,w,c
  2789  001BCE  1010               	iorwf	(??___xxtofl+1)^0,w,c
  2790  001BD0  1011               	iorwf	(??___xxtofl+2)^0,w,c
  2791  001BD2  1012               	iorwf	(??___xxtofl+3)^0,w,c
  2792  001BD4  A4D8               	btfss	status,2,c
  2793  001BD6  EFEF  F00D         	goto	u2561
  2794  001BDA  EFF1  F00D         	goto	u2560
  2795  001BDE                     u2561:
  2796  001BDE  EFCE  F00D         	goto	l2668
  2797  001BE2                     u2560:
  2798  001BE2  EFF9  F00D         	goto	l2676
  2799  001BE6                     l2674:
  2800  001BE6  0614               	decf	___xxtofl@exp^0,f,c
  2801  001BE8  90D8               	bcf	status,0,c
  2802  001BEA  3615               	rlcf	___xxtofl@arg^0,f,c
  2803  001BEC  3616               	rlcf	(___xxtofl@arg+1)^0,f,c
  2804  001BEE  3617               	rlcf	(___xxtofl@arg+2)^0,f,c
  2805  001BF0  3618               	rlcf	(___xxtofl@arg+3)^0,f,c
  2806  001BF2                     l2676:
  2807  001BF2  BE17               	btfsc	(___xxtofl@arg+2)^0,7,c
  2808  001BF4  EFFE  F00D         	goto	u2571
  2809  001BF8  EF00  F00E         	goto	u2570
  2810  001BFC                     u2571:
  2811  001BFC  EF08  F00E         	goto	l827
  2812  001C00                     u2570:
  2813  001C00  0E02               	movlw	2
  2814  001C02  6014               	cpfslt	___xxtofl@exp^0,c
  2815  001C04  EF06  F00E         	goto	u2581
  2816  001C08  EF08  F00E         	goto	u2580
  2817  001C0C                     u2581:
  2818  001C0C  EFF3  F00D         	goto	l2674
  2819  001C10                     u2580:
  2820  001C10                     l827:
  2821  001C10  B014               	btfsc	___xxtofl@exp^0,0,c
  2822  001C12  EF0D  F00E         	goto	u2591
  2823  001C16  EF0F  F00E         	goto	u2590
  2824  001C1A                     u2591:
  2825  001C1A  EF10  F00E         	goto	l2682
  2826  001C1E                     u2590:
  2827  001C1E  9E17               	bcf	(___xxtofl@arg+2)^0,7,c
  2828  001C20                     l2682:
  2829  001C20  90D8               	bcf	status,0,c
  2830  001C22  3214               	rrcf	___xxtofl@exp^0,f,c
  2831  001C24  C014  F00F         	movff	___xxtofl@exp,??___xxtofl
  2832  001C28  6A10               	clrf	(??___xxtofl+1)^0,c
  2833  001C2A  6A11               	clrf	(??___xxtofl+2)^0,c
  2834  001C2C  6A12               	clrf	(??___xxtofl+3)^0,c
  2835  001C2E  C00F  F012         	movff	??___xxtofl,??___xxtofl+3
  2836  001C32  6A11               	clrf	(??___xxtofl+2)^0,c
  2837  001C34  6A10               	clrf	(??___xxtofl+1)^0,c
  2838  001C36  6A0F               	clrf	??___xxtofl^0,c
  2839  001C38  500F               	movf	??___xxtofl^0,w,c
  2840  001C3A  1215               	iorwf	___xxtofl@arg^0,f,c
  2841  001C3C  5010               	movf	(??___xxtofl+1)^0,w,c
  2842  001C3E  1216               	iorwf	(___xxtofl@arg+1)^0,f,c
  2843  001C40  5011               	movf	(??___xxtofl+2)^0,w,c
  2844  001C42  1217               	iorwf	(___xxtofl@arg+2)^0,f,c
  2845  001C44  5012               	movf	(??___xxtofl+3)^0,w,c
  2846  001C46  1218               	iorwf	(___xxtofl@arg+3)^0,f,c
  2847  001C48  5013               	movf	___xxtofl@sign^0,w,c
  2848  001C4A  B4D8               	btfsc	status,2,c
  2849  001C4C  EF2A  F00E         	goto	u2601
  2850  001C50  EF2C  F00E         	goto	u2600
  2851  001C54                     u2601:
  2852  001C54  EF34  F00E         	goto	l2692
  2853  001C58                     u2600:
  2854  001C58  BE0E               	btfsc	(___xxtofl@val+3)^0,7,c
  2855  001C5A  EF33  F00E         	goto	u2610
  2856  001C5E  EF31  F00E         	goto	u2611
  2857  001C62                     u2611:
  2858  001C62  EF34  F00E         	goto	l2692
  2859  001C66                     u2610:
  2860  001C66  8E18               	bsf	(___xxtofl@arg+3)^0,7,c
  2861  001C68                     l2692:
  2862  001C68  C015  F00B         	movff	___xxtofl@arg,?___xxtofl
  2863  001C6C  C016  F00C         	movff	___xxtofl@arg+1,?___xxtofl+1
  2864  001C70  C017  F00D         	movff	___xxtofl@arg+2,?___xxtofl+2
  2865  001C74  C018  F00E         	movff	___xxtofl@arg+3,?___xxtofl+3
  2866  001C78                     l816:
  2867  001C78  0012               	return		;funcret
  2868  001C7A                     __end_of___xxtofl:
  2869                           	opt callstack 0
  2870                           
  2871 ;; *************** function ___fltol *****************
  2872 ;; Defined at:
  2873 ;;		line 43 in file "C:\Program Files (x86)\Microchip\xc8\v2.10\pic\sources\c90\common\fltol.c"
  2874 ;; Parameters:    Size  Location     Type
  2875 ;;  f1              4    0[COMRAM] unsigned char 
  2876 ;; Auto vars:     Size  Location     Type
  2877 ;;  exp1            1    9[COMRAM] unsigned char 
  2878 ;;  sign1           1    8[COMRAM] unsigned char 
  2879 ;; Return value:  Size  Location     Type
  2880 ;;                  4    0[COMRAM] long 
  2881 ;; Registers used:
  2882 ;;		wreg, status,2, status,0
  2883 ;; Tracked objects:
  2884 ;;		On entry : 0/0
  2885 ;;		On exit  : 0/0
  2886 ;;		Unchanged: 0/0
  2887 ;; Data sizes:     COMRAM   BANK0   BANK1   BANK2   BANK3   BANK4   BANK5   BANK6   BANK7
  2888 ;;      Params:         4       0       0       0       0       0       0       0       0
  2889 ;;      Locals:         2       0       0       0       0       0       0       0       0
  2890 ;;      Temps:          4       0       0       0       0       0       0       0       0
  2891 ;;      Totals:        10       0       0       0       0       0       0       0       0
  2892 ;;Total ram usage:       10 bytes
  2893 ;; Hardware stack levels used:    1
  2894 ;; This function calls:
  2895 ;;		Nothing
  2896 ;; This function is called by:
  2897 ;;		_display_float
  2898 ;; This function uses a non-reentrant model
  2899 ;;
  2900                           
  2901                           	psect	text13
  2902  001FE2                     __ptext13:
  2903                           	opt callstack 0
  2904  001FE2                     ___fltol:
  2905                           	opt callstack 29
  2906  001FE2  3403               	rlcf	(___fltol@f1+2)^0,w,c
  2907  001FE4  3404               	rlcf	(___fltol@f1+3)^0,w,c
  2908  001FE6  6E0A               	movwf	___fltol@exp1^0,c
  2909  001FE8  500A               	movf	___fltol@exp1^0,w,c
  2910  001FEA  A4D8               	btfss	status,2,c
  2911  001FEC  EFFA  F00F         	goto	u2451
  2912  001FF0  EFFC  F00F         	goto	u2450
  2913  001FF4                     u2451:
  2914  001FF4  EF06  F010         	goto	l2612
  2915  001FF8                     u2450:
  2916  001FF8                     l2608:
  2917  001FF8  0E00               	movlw	0
  2918  001FFA  6E01               	movwf	?___fltol^0,c
  2919  001FFC  0E00               	movlw	0
  2920  001FFE  6E02               	movwf	(?___fltol+1)^0,c
  2921  002000  0E00               	movlw	0
  2922  002002  6E03               	movwf	(?___fltol+2)^0,c
  2923  002004  0E00               	movlw	0
  2924  002006  6E04               	movwf	(?___fltol+3)^0,c
  2925  002008  EF73  F010         	goto	l459
  2926  00200C                     l2612:
  2927  00200C  C001  F005         	movff	___fltol@f1,??___fltol
  2928  002010  C002  F006         	movff	___fltol@f1+1,??___fltol+1
  2929  002014  C003  F007         	movff	___fltol@f1+2,??___fltol+2
  2930  002018  C004  F008         	movff	___fltol@f1+3,??___fltol+3
  2931  00201C  0E20               	movlw	32
  2932  00201E  EF16  F010         	goto	u2460
  2933  002022                     u2465:
  2934  002022  90D8               	bcf	status,0,c
  2935  002024  3208               	rrcf	(??___fltol+3)^0,f,c
  2936  002026  3207               	rrcf	(??___fltol+2)^0,f,c
  2937  002028  3206               	rrcf	(??___fltol+1)^0,f,c
  2938  00202A  3205               	rrcf	??___fltol^0,f,c
  2939  00202C                     u2460:
  2940  00202C  2EE8               	decfsz	wreg,f,c
  2941  00202E  EF11  F010         	goto	u2465
  2942  002032  5005               	movf	??___fltol^0,w,c
  2943  002034  6E09               	movwf	___fltol@sign1^0,c
  2944  002036  8E03               	bsf	(___fltol@f1+2)^0,7,c
  2945  002038  0EFF               	movlw	255
  2946  00203A  1601               	andwf	___fltol@f1^0,f,c
  2947  00203C  0EFF               	movlw	255
  2948  00203E  1602               	andwf	(___fltol@f1+1)^0,f,c
  2949  002040  0EFF               	movlw	255
  2950  002042  1603               	andwf	(___fltol@f1+2)^0,f,c
  2951  002044  0E00               	movlw	0
  2952  002046  1604               	andwf	(___fltol@f1+3)^0,f,c
  2953  002048  0E96               	movlw	150
  2954  00204A  5E0A               	subwf	___fltol@exp1^0,f,c
  2955  00204C  BE0A               	btfsc	___fltol@exp1^0,7,c
  2956  00204E  EF2D  F010         	goto	u2470
  2957  002052  EF2B  F010         	goto	u2471
  2958  002056                     u2471:
  2959  002056  EF43  F010         	goto	l2632
  2960  00205A                     u2470:
  2961  00205A  500A               	movf	___fltol@exp1^0,w,c
  2962  00205C  0A80               	xorlw	128
  2963  00205E  0F97               	addlw	151
  2964  002060  B0D8               	btfsc	status,0,c
  2965  002062  EF35  F010         	goto	u2481
  2966  002066  EF37  F010         	goto	u2480
  2967  00206A                     u2481:
  2968  00206A  EF39  F010         	goto	l2628
  2969  00206E                     u2480:
  2970  00206E  EFFC  F00F         	goto	l2608
  2971  002072                     l2628:
  2972  002072  90D8               	bcf	status,0,c
  2973  002074  3204               	rrcf	(___fltol@f1+3)^0,f,c
  2974  002076  3203               	rrcf	(___fltol@f1+2)^0,f,c
  2975  002078  3202               	rrcf	(___fltol@f1+1)^0,f,c
  2976  00207A  3201               	rrcf	___fltol@f1^0,f,c
  2977  00207C  3E0A               	incfsz	___fltol@exp1^0,f,c
  2978  00207E  EF39  F010         	goto	l2628
  2979  002082  EF5B  F010         	goto	l2642
  2980  002086                     l2632:
  2981  002086  0E1F               	movlw	31
  2982  002088  640A               	cpfsgt	___fltol@exp1^0,c
  2983  00208A  EF49  F010         	goto	u2491
  2984  00208E  EF4B  F010         	goto	u2490
  2985  002092                     u2491:
  2986  002092  EF53  F010         	goto	l2640
  2987  002096                     u2490:
  2988  002096  EFFC  F00F         	goto	l2608
  2989  00209A                     l2638:
  2990  00209A  90D8               	bcf	status,0,c
  2991  00209C  3601               	rlcf	___fltol@f1^0,f,c
  2992  00209E  3602               	rlcf	(___fltol@f1+1)^0,f,c
  2993  0020A0  3603               	rlcf	(___fltol@f1+2)^0,f,c
  2994  0020A2  3604               	rlcf	(___fltol@f1+3)^0,f,c
  2995  0020A4  060A               	decf	___fltol@exp1^0,f,c
  2996  0020A6                     l2640:
  2997  0020A6  500A               	movf	___fltol@exp1^0,w,c
  2998  0020A8  A4D8               	btfss	status,2,c
  2999  0020AA  EF59  F010         	goto	u2501
  3000  0020AE  EF5B  F010         	goto	u2500
  3001  0020B2                     u2501:
  3002  0020B2  EF4D  F010         	goto	l2638
  3003  0020B6                     u2500:
  3004  0020B6                     l2642:
  3005  0020B6  5009               	movf	___fltol@sign1^0,w,c
  3006  0020B8  B4D8               	btfsc	status,2,c
  3007  0020BA  EF61  F010         	goto	u2511
  3008  0020BE  EF63  F010         	goto	u2510
  3009  0020C2                     u2511:
  3010  0020C2  EF6B  F010         	goto	l2646
  3011  0020C6                     u2510:
  3012  0020C6  1E04               	comf	(___fltol@f1+3)^0,f,c
  3013  0020C8  1E03               	comf	(___fltol@f1+2)^0,f,c
  3014  0020CA  1E02               	comf	(___fltol@f1+1)^0,f,c
  3015  0020CC  6C01               	negf	___fltol@f1^0,c
  3016  0020CE  0E00               	movlw	0
  3017  0020D0  2202               	addwfc	(___fltol@f1+1)^0,f,c
  3018  0020D2  2203               	addwfc	(___fltol@f1+2)^0,f,c
  3019  0020D4  2204               	addwfc	(___fltol@f1+3)^0,f,c
  3020  0020D6                     l2646:
  3021  0020D6  C001  F001         	movff	___fltol@f1,?___fltol
  3022  0020DA  C002  F002         	movff	___fltol@f1+1,?___fltol+1
  3023  0020DE  C003  F003         	movff	___fltol@f1+2,?___fltol+2
  3024  0020E2  C004  F004         	movff	___fltol@f1+3,?___fltol+3
  3025  0020E6                     l459:
  3026  0020E6  0012               	return		;funcret
  3027  0020E8                     __end_of___fltol:
  3028                           	opt callstack 0
  3029                           
  3030 ;; *************** function ___flsub *****************
  3031 ;; Defined at:
  3032 ;;		line 245 in file "C:\Program Files (x86)\Microchip\xc8\v2.10\pic\sources\c90\common\sprcadd.c"
  3033 ;; Parameters:    Size  Location     Type
  3034 ;;  b               4   24[COMRAM] long 
  3035 ;;  a               4   28[COMRAM] long 
  3036 ;; Auto vars:     Size  Location     Type
  3037 ;;		None
  3038 ;; Return value:  Size  Location     Type
  3039 ;;                  4   24[COMRAM] long 
  3040 ;; Registers used:
  3041 ;;		wreg, status,2, status,0, cstack
  3042 ;; Tracked objects:
  3043 ;;		On entry : 0/0
  3044 ;;		On exit  : 0/0
  3045 ;;		Unchanged: 0/0
  3046 ;; Data sizes:     COMRAM   BANK0   BANK1   BANK2   BANK3   BANK4   BANK5   BANK6   BANK7
  3047 ;;      Params:         8       0       0       0       0       0       0       0       0
  3048 ;;      Locals:         0       0       0       0       0       0       0       0       0
  3049 ;;      Temps:          0       0       0       0       0       0       0       0       0
  3050 ;;      Totals:         8       0       0       0       0       0       0       0       0
  3051 ;;Total ram usage:        8 bytes
  3052 ;; Hardware stack levels used:    1
  3053 ;; Hardware stack levels required when called:    1
  3054 ;; This function calls:
  3055 ;;		___fladd
  3056 ;; This function is called by:
  3057 ;;		_display_float
  3058 ;; This function uses a non-reentrant model
  3059 ;;
  3060                           
  3061                           	psect	text14
  3062  0025AC                     __ptext14:
  3063                           	opt callstack 0
  3064  0025AC                     ___flsub:
  3065                           	opt callstack 28
  3066  0025AC  0E00               	movlw	0
  3067  0025AE  1A1D               	xorwf	___flsub@a^0,f,c
  3068  0025B0  0E00               	movlw	0
  3069  0025B2  1A1E               	xorwf	(___flsub@a+1)^0,f,c
  3070  0025B4  0E00               	movlw	0
  3071  0025B6  1A1F               	xorwf	(___flsub@a+2)^0,f,c
  3072  0025B8  0E80               	movlw	128
  3073  0025BA  1A20               	xorwf	(___flsub@a+3)^0,f,c
  3074  0025BC  C019  F001         	movff	___flsub@b,___fladd@b
  3075  0025C0  C01A  F002         	movff	___flsub@b+1,___fladd@b+1
  3076  0025C4  C01B  F003         	movff	___flsub@b+2,___fladd@b+2
  3077  0025C8  C01C  F004         	movff	___flsub@b+3,___fladd@b+3
  3078  0025CC  C01D  F005         	movff	___flsub@a,___fladd@a
  3079  0025D0  C01E  F006         	movff	___flsub@a+1,___fladd@a+1
  3080  0025D4  C01F  F007         	movff	___flsub@a+2,___fladd@a+2
  3081  0025D8  C020  F008         	movff	___flsub@a+3,___fladd@a+3
  3082  0025DC  EC0F  F004         	call	___fladd	;wreg free
  3083  0025E0  C001  F019         	movff	?___fladd,?___flsub
  3084  0025E4  C002  F01A         	movff	?___fladd+1,?___flsub+1
  3085  0025E8  C003  F01B         	movff	?___fladd+2,?___flsub+2
  3086  0025EC  C004  F01C         	movff	?___fladd+3,?___flsub+3
  3087  0025F0  0012               	return		;funcret
  3088  0025F2                     __end_of___flsub:
  3089                           	opt callstack 0
  3090                           
  3091 ;; *************** function ___fladd *****************
  3092 ;; Defined at:
  3093 ;;		line 10 in file "C:\Program Files (x86)\Microchip\xc8\v2.10\pic\sources\c90\common\sprcadd.c"
  3094 ;; Parameters:    Size  Location     Type
  3095 ;;  b               4    0[COMRAM] long 
  3096 ;;  a               4    4[COMRAM] long 
  3097 ;; Auto vars:     Size  Location     Type
  3098 ;;  grs             1   15[COMRAM] unsigned char 
  3099 ;;  bexp            1   14[COMRAM] unsigned char 
  3100 ;;  aexp            1   13[COMRAM] unsigned char 
  3101 ;;  signs           1   12[COMRAM] unsigned char 
  3102 ;; Return value:  Size  Location     Type
  3103 ;;                  4    0[COMRAM] unsigned char 
  3104 ;; Registers used:
  3105 ;;		wreg, status,2, status,0
  3106 ;; Tracked objects:
  3107 ;;		On entry : 0/0
  3108 ;;		On exit  : 0/0
  3109 ;;		Unchanged: 0/0
  3110 ;; Data sizes:     COMRAM   BANK0   BANK1   BANK2   BANK3   BANK4   BANK5   BANK6   BANK7
  3111 ;;      Params:         8       0       0       0       0       0       0       0       0
  3112 ;;      Locals:         4       0       0       0       0       0       0       0       0
  3113 ;;      Temps:          4       0       0       0       0       0       0       0       0
  3114 ;;      Totals:        16       0       0       0       0       0       0       0       0
  3115 ;;Total ram usage:       16 bytes
  3116 ;; Hardware stack levels used:    1
  3117 ;; This function calls:
  3118 ;;		Nothing
  3119 ;; This function is called by:
  3120 ;;		___flsub
  3121 ;; This function uses a non-reentrant model
  3122 ;;
  3123                           
  3124                           	psect	text15
  3125  00081E                     __ptext15:
  3126                           	opt callstack 0
  3127  00081E                     ___fladd:
  3128                           	opt callstack 28
  3129  00081E  5004               	movf	(___fladd@b+3)^0,w,c
  3130  000820  0B80               	andlw	128
  3131  000822  6E0D               	movwf	___fladd@signs^0,c
  3132  000824  5004               	movf	(___fladd@b+3)^0,w,c
  3133  000826  2404               	addwf	(___fladd@b+3)^0,w,c
  3134  000828  6E0F               	movwf	___fladd@bexp^0,c
  3135  00082A  AE03               	btfss	(___fladd@b+2)^0,7,c
  3136  00082C  EF1A  F004         	goto	u1751
  3137  000830  EF1C  F004         	goto	u1750
  3138  000834                     u1751:
  3139  000834  EF1D  F004         	goto	l2178
  3140  000838                     u1750:
  3141  000838  800F               	bsf	___fladd@bexp^0,0,c
  3142  00083A                     l2178:
  3143  00083A  500F               	movf	___fladd@bexp^0,w,c
  3144  00083C  B4D8               	btfsc	status,2,c
  3145  00083E  EF23  F004         	goto	u1761
  3146  000842  EF25  F004         	goto	u1760
  3147  000846                     u1761:
  3148  000846  EF3A  F004         	goto	l2188
  3149  00084A                     u1760:
  3150  00084A  280F               	incf	___fladd@bexp^0,w,c
  3151  00084C  A4D8               	btfss	status,2,c
  3152  00084E  EF2B  F004         	goto	u1771
  3153  000852  EF2D  F004         	goto	u1770
  3154  000856                     u1771:
  3155  000856  EF35  F004         	goto	l2184
  3156  00085A                     u1770:
  3157  00085A  0E00               	movlw	0
  3158  00085C  6E01               	movwf	___fladd@b^0,c
  3159  00085E  0E00               	movlw	0
  3160  000860  6E02               	movwf	(___fladd@b+1)^0,c
  3161  000862  0E00               	movlw	0
  3162  000864  6E03               	movwf	(___fladd@b+2)^0,c
  3163  000866  0E00               	movlw	0
  3164  000868  6E04               	movwf	(___fladd@b+3)^0,c
  3165  00086A                     l2184:
  3166  00086A  8E03               	bsf	(___fladd@b+2)^0,7,c
  3167  00086C  0E00               	movlw	0
  3168  00086E  6E04               	movwf	(___fladd@b+3)^0,c
  3169  000870  EF42  F004         	goto	l2190
  3170  000874                     l2188:
  3171  000874  0E00               	movlw	0
  3172  000876  6E01               	movwf	___fladd@b^0,c
  3173  000878  0E00               	movlw	0
  3174  00087A  6E02               	movwf	(___fladd@b+1)^0,c
  3175  00087C  0E00               	movlw	0
  3176  00087E  6E03               	movwf	(___fladd@b+2)^0,c
  3177  000880  0E00               	movlw	0
  3178  000882  6E04               	movwf	(___fladd@b+3)^0,c
  3179  000884                     l2190:
  3180  000884  5008               	movf	(___fladd@a+3)^0,w,c
  3181  000886  0B80               	andlw	128
  3182  000888  6E0E               	movwf	___fladd@aexp^0,c
  3183  00088A  500D               	movf	___fladd@signs^0,w,c
  3184  00088C  180E               	xorwf	___fladd@aexp^0,w,c
  3185  00088E  B4D8               	btfsc	status,2,c
  3186  000890  EF4C  F004         	goto	u1781
  3187  000894  EF4E  F004         	goto	u1780
  3188  000898                     u1781:
  3189  000898  EF4F  F004         	goto	l2196
  3190  00089C                     u1780:
  3191  00089C  8C0D               	bsf	___fladd@signs^0,6,c
  3192  00089E                     l2196:
  3193  00089E  5008               	movf	(___fladd@a+3)^0,w,c
  3194  0008A0  2408               	addwf	(___fladd@a+3)^0,w,c
  3195  0008A2  6E0E               	movwf	___fladd@aexp^0,c
  3196  0008A4  AE07               	btfss	(___fladd@a+2)^0,7,c
  3197  0008A6  EF57  F004         	goto	u1791
  3198  0008AA  EF59  F004         	goto	u1790
  3199  0008AE                     u1791:
  3200  0008AE  EF5A  F004         	goto	l2202
  3201  0008B2                     u1790:
  3202  0008B2  800E               	bsf	___fladd@aexp^0,0,c
  3203  0008B4                     l2202:
  3204  0008B4  500E               	movf	___fladd@aexp^0,w,c
  3205  0008B6  B4D8               	btfsc	status,2,c
  3206  0008B8  EF60  F004         	goto	u1801
  3207  0008BC  EF62  F004         	goto	u1800
  3208  0008C0                     u1801:
  3209  0008C0  EF77  F004         	goto	l2212
  3210  0008C4                     u1800:
  3211  0008C4  280E               	incf	___fladd@aexp^0,w,c
  3212  0008C6  A4D8               	btfss	status,2,c
  3213  0008C8  EF68  F004         	goto	u1811
  3214  0008CC  EF6A  F004         	goto	u1810
  3215  0008D0                     u1811:
  3216  0008D0  EF72  F004         	goto	l2208
  3217  0008D4                     u1810:
  3218  0008D4  0E00               	movlw	0
  3219  0008D6  6E05               	movwf	___fladd@a^0,c
  3220  0008D8  0E00               	movlw	0
  3221  0008DA  6E06               	movwf	(___fladd@a+1)^0,c
  3222  0008DC  0E00               	movlw	0
  3223  0008DE  6E07               	movwf	(___fladd@a+2)^0,c
  3224  0008E0  0E00               	movlw	0
  3225  0008E2  6E08               	movwf	(___fladd@a+3)^0,c
  3226  0008E4                     l2208:
  3227  0008E4  8E07               	bsf	(___fladd@a+2)^0,7,c
  3228  0008E6  0E00               	movlw	0
  3229  0008E8  6E08               	movwf	(___fladd@a+3)^0,c
  3230  0008EA  EF7F  F004         	goto	l2214
  3231  0008EE                     l2212:
  3232  0008EE  0E00               	movlw	0
  3233  0008F0  6E05               	movwf	___fladd@a^0,c
  3234  0008F2  0E00               	movlw	0
  3235  0008F4  6E06               	movwf	(___fladd@a+1)^0,c
  3236  0008F6  0E00               	movlw	0
  3237  0008F8  6E07               	movwf	(___fladd@a+2)^0,c
  3238  0008FA  0E00               	movlw	0
  3239  0008FC  6E08               	movwf	(___fladd@a+3)^0,c
  3240  0008FE                     l2214:
  3241  0008FE  500F               	movf	___fladd@bexp^0,w,c
  3242  000900  5C0E               	subwf	___fladd@aexp^0,w,c
  3243  000902  B0D8               	btfsc	status,0,c
  3244  000904  EF86  F004         	goto	u1821
  3245  000908  EF88  F004         	goto	u1820
  3246  00090C                     u1821:
  3247  00090C  EFAF  F004         	goto	l2250
  3248  000910                     u1820:
  3249  000910  AC0D               	btfss	___fladd@signs^0,6,c
  3250  000912  EF8D  F004         	goto	u1831
  3251  000916  EF8F  F004         	goto	u1830
  3252  00091A                     u1831:
  3253  00091A  EF91  F004         	goto	l2220
  3254  00091E                     u1830:
  3255  00091E  0E80               	movlw	128
  3256  000920  1A0D               	xorwf	___fladd@signs^0,f,c
  3257  000922                     l2220:
  3258  000922  C00F  F010         	movff	___fladd@bexp,___fladd@grs
  3259  000926  C00E  F00F         	movff	___fladd@aexp,___fladd@bexp
  3260  00092A  C010  F00E         	movff	___fladd@grs,___fladd@aexp
  3261  00092E  C001  F010         	movff	___fladd@b,___fladd@grs
  3262  000932  C005  F001         	movff	___fladd@a,___fladd@b
  3263  000936  C010  F005         	movff	___fladd@grs,___fladd@a
  3264  00093A  C002  F010         	movff	___fladd@b+1,___fladd@grs
  3265  00093E  C006  F002         	movff	___fladd@a+1,___fladd@b+1
  3266  000942  C010  F006         	movff	___fladd@grs,___fladd@a+1
  3267  000946  C003  F010         	movff	___fladd@b+2,___fladd@grs
  3268  00094A  C007  F003         	movff	___fladd@a+2,___fladd@b+2
  3269  00094E  C010  F007         	movff	___fladd@grs,___fladd@a+2
  3270  000952  C004  F010         	movff	___fladd@b+3,___fladd@grs
  3271  000956  C008  F004         	movff	___fladd@a+3,___fladd@b+3
  3272  00095A  C010  F008         	movff	___fladd@grs,___fladd@a+3
  3273  00095E                     l2250:
  3274  00095E  0E00               	movlw	0
  3275  000960  6E10               	movwf	___fladd@grs^0,c
  3276  000962  500F               	movf	___fladd@bexp^0,w,c
  3277  000964  C00E  F009         	movff	___fladd@aexp,??___fladd
  3278  000968  6A0A               	clrf	(??___fladd+1)^0,c
  3279  00096A  5E09               	subwf	??___fladd^0,f,c
  3280  00096C  0E00               	movlw	0
  3281  00096E  5A0A               	subwfb	(??___fladd+1)^0,f,c
  3282  000970  BE0A               	btfsc	(??___fladd+1)^0,7,c
  3283  000972  EFC4  F004         	goto	u1841
  3284  000976  500A               	movf	(??___fladd+1)^0,w,c
  3285  000978  E109               	bnz	u1840
  3286  00097A  0E1A               	movlw	26
  3287  00097C  5C09               	subwf	??___fladd^0,w,c
  3288  00097E  A0D8               	btfss	status,0,c
  3289  000980  EFC4  F004         	goto	u1841
  3290  000984  EFC6  F004         	goto	u1840
  3291  000988                     u1841:
  3292  000988  EFFD  F004         	goto	l687
  3293  00098C                     u1840:
  3294  00098C  5001               	movf	___fladd@b^0,w,c
  3295  00098E  1002               	iorwf	(___fladd@b+1)^0,w,c
  3296  000990  1003               	iorwf	(___fladd@b+2)^0,w,c
  3297  000992  1004               	iorwf	(___fladd@b+3)^0,w,c
  3298  000994  A4D8               	btfss	status,2,c
  3299  000996  EFCF  F004         	goto	u1851
  3300  00099A  EFD2  F004         	goto	u1850
  3301  00099E                     u1851:
  3302  00099E  0E01               	movlw	1
  3303  0009A0  EFD3  F004         	goto	u1860
  3304  0009A4                     u1850:
  3305  0009A4  0E00               	movlw	0
  3306  0009A6                     u1860:
  3307  0009A6  6E10               	movwf	___fladd@grs^0,c
  3308  0009A8  0E00               	movlw	0
  3309  0009AA  6E01               	movwf	___fladd@b^0,c
  3310  0009AC  0E00               	movlw	0
  3311  0009AE  6E02               	movwf	(___fladd@b+1)^0,c
  3312  0009B0  0E00               	movlw	0
  3313  0009B2  6E03               	movwf	(___fladd@b+2)^0,c
  3314  0009B4  0E00               	movlw	0
  3315  0009B6  6E04               	movwf	(___fladd@b+3)^0,c
  3316  0009B8  C00E  F00F         	movff	___fladd@aexp,___fladd@bexp
  3317  0009BC  EF06  F005         	goto	l686
  3318  0009C0                     l688:
  3319  0009C0  A010               	btfss	___fladd@grs^0,0,c
  3320  0009C2  EFE5  F004         	goto	u1871
  3321  0009C6  EFE7  F004         	goto	u1870
  3322  0009CA                     u1871:
  3323  0009CA  EFED  F004         	goto	l2262
  3324  0009CE                     u1870:
  3325  0009CE  90D8               	bcf	status,0,c
  3326  0009D0  3010               	rrcf	___fladd@grs^0,w,c
  3327  0009D2  0901               	iorlw	1
  3328  0009D4  6E10               	movwf	___fladd@grs^0,c
  3329  0009D6  EFEF  F004         	goto	l2264
  3330  0009DA                     l2262:
  3331  0009DA  90D8               	bcf	status,0,c
  3332  0009DC  3210               	rrcf	___fladd@grs^0,f,c
  3333  0009DE                     l2264:
  3334  0009DE  A001               	btfss	___fladd@b^0,0,c
  3335  0009E0  EFF4  F004         	goto	u1881
  3336  0009E4  EFF6  F004         	goto	u1880
  3337  0009E8                     u1881:
  3338  0009E8  EFF7  F004         	goto	l2268
  3339  0009EC                     u1880:
  3340  0009EC  8E10               	bsf	___fladd@grs^0,7,c
  3341  0009EE                     l2268:
  3342  0009EE  3404               	rlcf	(___fladd@b+3)^0,w,c
  3343  0009F0  3204               	rrcf	(___fladd@b+3)^0,f,c
  3344  0009F2  3203               	rrcf	(___fladd@b+2)^0,f,c
  3345  0009F4  3202               	rrcf	(___fladd@b+1)^0,f,c
  3346  0009F6  3201               	rrcf	___fladd@b^0,f,c
  3347  0009F8  2A0F               	incf	___fladd@bexp^0,f,c
  3348  0009FA                     l687:
  3349  0009FA  500E               	movf	___fladd@aexp^0,w,c
  3350  0009FC  5C0F               	subwf	___fladd@bexp^0,w,c
  3351  0009FE  A0D8               	btfss	status,0,c
  3352  000A00  EF04  F005         	goto	u1891
  3353  000A04  EF06  F005         	goto	u1890
  3354  000A08                     u1891:
  3355  000A08  EFE0  F004         	goto	l688
  3356  000A0C                     u1890:
  3357  000A0C                     l686:
  3358  000A0C  BC0D               	btfsc	___fladd@signs^0,6,c
  3359  000A0E  EF0B  F005         	goto	u1901
  3360  000A12  EF0D  F005         	goto	u1900
  3361  000A16                     u1901:
  3362  000A16  EF4D  F005         	goto	l2296
  3363  000A1A                     u1900:
  3364  000A1A  500F               	movf	___fladd@bexp^0,w,c
  3365  000A1C  A4D8               	btfss	status,2,c
  3366  000A1E  EF13  F005         	goto	u1911
  3367  000A22  EF15  F005         	goto	u1910
  3368  000A26                     u1911:
  3369  000A26  EF1F  F005         	goto	l2278
  3370  000A2A                     u1910:
  3371  000A2A  0E00               	movlw	0
  3372  000A2C  6E01               	movwf	?___fladd^0,c
  3373  000A2E  0E00               	movlw	0
  3374  000A30  6E02               	movwf	(?___fladd+1)^0,c
  3375  000A32  0E00               	movlw	0
  3376  000A34  6E03               	movwf	(?___fladd+2)^0,c
  3377  000A36  0E00               	movlw	0
  3378  000A38  6E04               	movwf	(?___fladd+3)^0,c
  3379  000A3A  EF6E  F006         	goto	l695
  3380  000A3E                     l2278:
  3381  000A3E  5005               	movf	___fladd@a^0,w,c
  3382  000A40  2601               	addwf	___fladd@b^0,f,c
  3383  000A42  5006               	movf	(___fladd@a+1)^0,w,c
  3384  000A44  2202               	addwfc	(___fladd@b+1)^0,f,c
  3385  000A46  5007               	movf	(___fladd@a+2)^0,w,c
  3386  000A48  2203               	addwfc	(___fladd@b+2)^0,f,c
  3387  000A4A  5008               	movf	(___fladd@a+3)^0,w,c
  3388  000A4C  2204               	addwfc	(___fladd@b+3)^0,f,c
  3389  000A4E  A004               	btfss	(___fladd@b+3)^0,0,c
  3390  000A50  EF2C  F005         	goto	u1921
  3391  000A54  EF2E  F005         	goto	u1920
  3392  000A58                     u1921:
  3393  000A58  EFDA  F005         	goto	l2332
  3394  000A5C                     u1920:
  3395  000A5C  A010               	btfss	___fladd@grs^0,0,c
  3396  000A5E  EF33  F005         	goto	u1931
  3397  000A62  EF35  F005         	goto	u1930
  3398  000A66                     u1931:
  3399  000A66  EF3B  F005         	goto	l2286
  3400  000A6A                     u1930:
  3401  000A6A  90D8               	bcf	status,0,c
  3402  000A6C  3010               	rrcf	___fladd@grs^0,w,c
  3403  000A6E  0901               	iorlw	1
  3404  000A70  6E10               	movwf	___fladd@grs^0,c
  3405  000A72  EF3D  F005         	goto	l2288
  3406  000A76                     l2286:
  3407  000A76  90D8               	bcf	status,0,c
  3408  000A78  3210               	rrcf	___fladd@grs^0,f,c
  3409  000A7A                     l2288:
  3410  000A7A  A001               	btfss	___fladd@b^0,0,c
  3411  000A7C  EF42  F005         	goto	u1941
  3412  000A80  EF44  F005         	goto	u1940
  3413  000A84                     u1941:
  3414  000A84  EF45  F005         	goto	l2292
  3415  000A88                     u1940:
  3416  000A88  8E10               	bsf	___fladd@grs^0,7,c
  3417  000A8A                     l2292:
  3418  000A8A  3404               	rlcf	(___fladd@b+3)^0,w,c
  3419  000A8C  3204               	rrcf	(___fladd@b+3)^0,f,c
  3420  000A8E  3203               	rrcf	(___fladd@b+2)^0,f,c
  3421  000A90  3202               	rrcf	(___fladd@b+1)^0,f,c
  3422  000A92  3201               	rrcf	___fladd@b^0,f,c
  3423  000A94  2A0F               	incf	___fladd@bexp^0,f,c
  3424  000A96  EFDA  F005         	goto	l2332
  3425  000A9A                     l2296:
  3426  000A9A  5005               	movf	___fladd@a^0,w,c
  3427  000A9C  5C01               	subwf	___fladd@b^0,w,c
  3428  000A9E  5006               	movf	(___fladd@a+1)^0,w,c
  3429  000AA0  5802               	subwfb	(___fladd@b+1)^0,w,c
  3430  000AA2  5007               	movf	(___fladd@a+2)^0,w,c
  3431  000AA4  5803               	subwfb	(___fladd@b+2)^0,w,c
  3432  000AA6  5004               	movf	(___fladd@b+3)^0,w,c
  3433  000AA8  0A80               	xorlw	128
  3434  000AAA  6E09               	movwf	??___fladd^0,c
  3435  000AAC  5008               	movf	(___fladd@a+3)^0,w,c
  3436  000AAE  0A80               	xorlw	128
  3437  000AB0  5809               	subwfb	??___fladd^0,w,c
  3438  000AB2  B0D8               	btfsc	status,0,c
  3439  000AB4  EF5E  F005         	goto	u1951
  3440  000AB8  EF60  F005         	goto	u1950
  3441  000ABC                     u1951:
  3442  000ABC  EF8B  F005         	goto	l2306
  3443  000AC0                     u1950:
  3444  000AC0  5001               	movf	___fladd@b^0,w,c
  3445  000AC2  5C05               	subwf	___fladd@a^0,w,c
  3446  000AC4  6E09               	movwf	??___fladd^0,c
  3447  000AC6  5002               	movf	(___fladd@b+1)^0,w,c
  3448  000AC8  5806               	subwfb	(___fladd@a+1)^0,w,c
  3449  000ACA  6E0A               	movwf	(??___fladd+1)^0,c
  3450  000ACC  5003               	movf	(___fladd@b+2)^0,w,c
  3451  000ACE  5807               	subwfb	(___fladd@a+2)^0,w,c
  3452  000AD0  6E0B               	movwf	(??___fladd+2)^0,c
  3453  000AD2  5004               	movf	(___fladd@b+3)^0,w,c
  3454  000AD4  5808               	subwfb	(___fladd@a+3)^0,w,c
  3455  000AD6  6E0C               	movwf	(??___fladd+3)^0,c
  3456  000AD8  0EFF               	movlw	255
  3457  000ADA  2409               	addwf	??___fladd^0,w,c
  3458  000ADC  6E01               	movwf	___fladd@b^0,c
  3459  000ADE  0EFF               	movlw	255
  3460  000AE0  200A               	addwfc	(??___fladd+1)^0,w,c
  3461  000AE2  6E02               	movwf	(___fladd@b+1)^0,c
  3462  000AE4  0EFF               	movlw	255
  3463  000AE6  200B               	addwfc	(??___fladd+2)^0,w,c
  3464  000AE8  6E03               	movwf	(___fladd@b+2)^0,c
  3465  000AEA  0EFF               	movlw	255
  3466  000AEC  200C               	addwfc	(??___fladd+3)^0,w,c
  3467  000AEE  6E04               	movwf	(___fladd@b+3)^0,c
  3468  000AF0  0E80               	movlw	128
  3469  000AF2  1A0D               	xorwf	___fladd@signs^0,f,c
  3470  000AF4  6C10               	negf	___fladd@grs^0,c
  3471  000AF6  5010               	movf	___fladd@grs^0,w,c
  3472  000AF8  A4D8               	btfss	status,2,c
  3473  000AFA  EF81  F005         	goto	u1961
  3474  000AFE  EF83  F005         	goto	u1960
  3475  000B02                     u1961:
  3476  000B02  EF93  F005         	goto	l703
  3477  000B06                     u1960:
  3478  000B06  0E01               	movlw	1
  3479  000B08  2601               	addwf	___fladd@b^0,f,c
  3480  000B0A  0E00               	movlw	0
  3481  000B0C  2202               	addwfc	(___fladd@b+1)^0,f,c
  3482  000B0E  2203               	addwfc	(___fladd@b+2)^0,f,c
  3483  000B10  2204               	addwfc	(___fladd@b+3)^0,f,c
  3484  000B12  EF93  F005         	goto	l703
  3485  000B16                     l2306:
  3486  000B16  5005               	movf	___fladd@a^0,w,c
  3487  000B18  5E01               	subwf	___fladd@b^0,f,c
  3488  000B1A  5006               	movf	(___fladd@a+1)^0,w,c
  3489  000B1C  5A02               	subwfb	(___fladd@b+1)^0,f,c
  3490  000B1E  5007               	movf	(___fladd@a+2)^0,w,c
  3491  000B20  5A03               	subwfb	(___fladd@b+2)^0,f,c
  3492  000B22  5008               	movf	(___fladd@a+3)^0,w,c
  3493  000B24  5A04               	subwfb	(___fladd@b+3)^0,f,c
  3494  000B26                     l703:
  3495  000B26  5001               	movf	___fladd@b^0,w,c
  3496  000B28  1002               	iorwf	(___fladd@b+1)^0,w,c
  3497  000B2A  1003               	iorwf	(___fladd@b+2)^0,w,c
  3498  000B2C  1004               	iorwf	(___fladd@b+3)^0,w,c
  3499  000B2E  A4D8               	btfss	status,2,c
  3500  000B30  EF9C  F005         	goto	u1971
  3501  000B34  EF9E  F005         	goto	u1970
  3502  000B38                     u1971:
  3503  000B38  EFD3  F005         	goto	l2330
  3504  000B3C                     u1970:
  3505  000B3C  5010               	movf	___fladd@grs^0,w,c
  3506  000B3E  A4D8               	btfss	status,2,c
  3507  000B40  EFA4  F005         	goto	u1981
  3508  000B44  EFA6  F005         	goto	u1980
  3509  000B48                     u1981:
  3510  000B48  EFD3  F005         	goto	l2330
  3511  000B4C                     u1980:
  3512  000B4C  0E00               	movlw	0
  3513  000B4E  6E01               	movwf	?___fladd^0,c
  3514  000B50  0E00               	movlw	0
  3515  000B52  6E02               	movwf	(?___fladd+1)^0,c
  3516  000B54  0E00               	movlw	0
  3517  000B56  6E03               	movwf	(?___fladd+2)^0,c
  3518  000B58  0E00               	movlw	0
  3519  000B5A  6E04               	movwf	(?___fladd+3)^0,c
  3520  000B5C  EF6E  F006         	goto	l695
  3521  000B60                     l2314:
  3522  000B60  90D8               	bcf	status,0,c
  3523  000B62  3601               	rlcf	___fladd@b^0,f,c
  3524  000B64  3602               	rlcf	(___fladd@b+1)^0,f,c
  3525  000B66  3603               	rlcf	(___fladd@b+2)^0,f,c
  3526  000B68  3604               	rlcf	(___fladd@b+3)^0,f,c
  3527  000B6A  AE10               	btfss	___fladd@grs^0,7,c
  3528  000B6C  EFBA  F005         	goto	u1991
  3529  000B70  EFBC  F005         	goto	u1990
  3530  000B74                     u1991:
  3531  000B74  EFBD  F005         	goto	l2320
  3532  000B78                     u1990:
  3533  000B78  8001               	bsf	___fladd@b^0,0,c
  3534  000B7A                     l2320:
  3535  000B7A  A010               	btfss	___fladd@grs^0,0,c
  3536  000B7C  EFC2  F005         	goto	u2001
  3537  000B80  EFC4  F005         	goto	u2000
  3538  000B84                     u2001:
  3539  000B84  EFC8  F005         	goto	l2324
  3540  000B88                     u2000:
  3541  000B88  80D8               	bsf	status,0,c
  3542  000B8A  3610               	rlcf	___fladd@grs^0,f,c
  3543  000B8C  EFCA  F005         	goto	l2326
  3544  000B90                     l2324:
  3545  000B90  90D8               	bcf	status,0,c
  3546  000B92  3610               	rlcf	___fladd@grs^0,f,c
  3547  000B94                     l2326:
  3548  000B94  500F               	movf	___fladd@bexp^0,w,c
  3549  000B96  B4D8               	btfsc	status,2,c
  3550  000B98  EFD0  F005         	goto	u2011
  3551  000B9C  EFD2  F005         	goto	u2010
  3552  000BA0                     u2011:
  3553  000BA0  EFD3  F005         	goto	l2330
  3554  000BA4                     u2010:
  3555  000BA4  060F               	decf	___fladd@bexp^0,f,c
  3556  000BA6                     l2330:
  3557  000BA6  AE03               	btfss	(___fladd@b+2)^0,7,c
  3558  000BA8  EFD8  F005         	goto	u2021
  3559  000BAC  EFDA  F005         	goto	u2020
  3560  000BB0                     u2021:
  3561  000BB0  EFB0  F005         	goto	l2314
  3562  000BB4                     u2020:
  3563  000BB4                     l2332:
  3564  000BB4  0E00               	movlw	0
  3565  000BB6  6E0E               	movwf	___fladd@aexp^0,c
  3566  000BB8  AE10               	btfss	___fladd@grs^0,7,c
  3567  000BBA  EFE1  F005         	goto	u2031
  3568  000BBE  EFE3  F005         	goto	u2030
  3569  000BC2                     u2031:
  3570  000BC2  EFFB  F005         	goto	l712
  3571  000BC6                     u2030:
  3572  000BC6  C010  F009         	movff	___fladd@grs,??___fladd
  3573  000BCA  0E7F               	movlw	127
  3574  000BCC  1609               	andwf	??___fladd^0,f,c
  3575  000BCE  B4D8               	btfsc	status,2,c
  3576  000BD0  EFEC  F005         	goto	u2041
  3577  000BD4  EFEE  F005         	goto	u2040
  3578  000BD8                     u2041:
  3579  000BD8  EFF2  F005         	goto	l713
  3580  000BDC                     u2040:
  3581  000BDC                     l2338:
  3582  000BDC  0E01               	movlw	1
  3583  000BDE  6E0E               	movwf	___fladd@aexp^0,c
  3584  000BE0  EFFB  F005         	goto	l712
  3585  000BE4                     l713:
  3586  000BE4  A001               	btfss	___fladd@b^0,0,c
  3587  000BE6  EFF7  F005         	goto	u2051
  3588  000BEA  EFF9  F005         	goto	u2050
  3589  000BEE                     u2051:
  3590  000BEE  EFFB  F005         	goto	l712
  3591  000BF2                     u2050:
  3592  000BF2  EFEE  F005         	goto	l2338
  3593  000BF6                     l712:
  3594  000BF6  500E               	movf	___fladd@aexp^0,w,c
  3595  000BF8  B4D8               	btfsc	status,2,c
  3596  000BFA  EF01  F006         	goto	u2061
  3597  000BFE  EF03  F006         	goto	u2060
  3598  000C02                     u2061:
  3599  000C02  EF2E  F006         	goto	l2350
  3600  000C06                     u2060:
  3601  000C06  0E01               	movlw	1
  3602  000C08  2601               	addwf	___fladd@b^0,f,c
  3603  000C0A  0E00               	movlw	0
  3604  000C0C  2202               	addwfc	(___fladd@b+1)^0,f,c
  3605  000C0E  2203               	addwfc	(___fladd@b+2)^0,f,c
  3606  000C10  2204               	addwfc	(___fladd@b+3)^0,f,c
  3607  000C12  A004               	btfss	(___fladd@b+3)^0,0,c
  3608  000C14  EF0E  F006         	goto	u2071
  3609  000C18  EF10  F006         	goto	u2070
  3610  000C1C                     u2071:
  3611  000C1C  EF2E  F006         	goto	l2350
  3612  000C20                     u2070:
  3613  000C20  C001  F009         	movff	___fladd@b,??___fladd
  3614  000C24  C002  F00A         	movff	___fladd@b+1,??___fladd+1
  3615  000C28  C003  F00B         	movff	___fladd@b+2,??___fladd+2
  3616  000C2C  C004  F00C         	movff	___fladd@b+3,??___fladd+3
  3617  000C30  340C               	rlcf	(??___fladd+3)^0,w,c
  3618  000C32  320C               	rrcf	(??___fladd+3)^0,f,c
  3619  000C34  320B               	rrcf	(??___fladd+2)^0,f,c
  3620  000C36  320A               	rrcf	(??___fladd+1)^0,f,c
  3621  000C38  3209               	rrcf	??___fladd^0,f,c
  3622  000C3A  C009  F001         	movff	??___fladd,___fladd@b
  3623  000C3E  C00A  F002         	movff	??___fladd+1,___fladd@b+1
  3624  000C42  C00B  F003         	movff	??___fladd+2,___fladd@b+2
  3625  000C46  C00C  F004         	movff	??___fladd+3,___fladd@b+3
  3626  000C4A  280F               	incf	___fladd@bexp^0,w,c
  3627  000C4C  B4D8               	btfsc	status,2,c
  3628  000C4E  EF2B  F006         	goto	u2081
  3629  000C52  EF2D  F006         	goto	u2080
  3630  000C56                     u2081:
  3631  000C56  EF2E  F006         	goto	l2350
  3632  000C5A                     u2080:
  3633  000C5A  2A0F               	incf	___fladd@bexp^0,f,c
  3634  000C5C                     l2350:
  3635  000C5C  280F               	incf	___fladd@bexp^0,w,c
  3636  000C5E  B4D8               	btfsc	status,2,c
  3637  000C60  EF34  F006         	goto	u2091
  3638  000C64  EF36  F006         	goto	u2090
  3639  000C68                     u2091:
  3640  000C68  EF3E  F006         	goto	l2354
  3641  000C6C                     u2090:
  3642  000C6C  500F               	movf	___fladd@bexp^0,w,c
  3643  000C6E  A4D8               	btfss	status,2,c
  3644  000C70  EF3C  F006         	goto	u2101
  3645  000C74  EF3E  F006         	goto	u2100
  3646  000C78                     u2101:
  3647  000C78  EF50  F006         	goto	l2358
  3648  000C7C                     u2100:
  3649  000C7C                     l2354:
  3650  000C7C  0E00               	movlw	0
  3651  000C7E  6E01               	movwf	___fladd@b^0,c
  3652  000C80  0E00               	movlw	0
  3653  000C82  6E02               	movwf	(___fladd@b+1)^0,c
  3654  000C84  0E00               	movlw	0
  3655  000C86  6E03               	movwf	(___fladd@b+2)^0,c
  3656  000C88  0E00               	movlw	0
  3657  000C8A  6E04               	movwf	(___fladd@b+3)^0,c
  3658  000C8C  500F               	movf	___fladd@bexp^0,w,c
  3659  000C8E  A4D8               	btfss	status,2,c
  3660  000C90  EF4C  F006         	goto	u2111
  3661  000C94  EF4E  F006         	goto	u2110
  3662  000C98                     u2111:
  3663  000C98  EF50  F006         	goto	l2358
  3664  000C9C                     u2110:
  3665  000C9C  0E00               	movlw	0
  3666  000C9E  6E0D               	movwf	___fladd@signs^0,c
  3667  000CA0                     l2358:
  3668  000CA0  A00F               	btfss	___fladd@bexp^0,0,c
  3669  000CA2  EF55  F006         	goto	u2121
  3670  000CA6  EF57  F006         	goto	u2120
  3671  000CAA                     u2121:
  3672  000CAA  EF5A  F006         	goto	l2362
  3673  000CAE                     u2120:
  3674  000CAE  8E03               	bsf	(___fladd@b+2)^0,7,c
  3675  000CB0  EF5B  F006         	goto	l2364
  3676  000CB4                     l2362:
  3677  000CB4  9E03               	bcf	(___fladd@b+2)^0,7,c
  3678  000CB6                     l2364:
  3679  000CB6  90D8               	bcf	status,0,c
  3680  000CB8  300F               	rrcf	___fladd@bexp^0,w,c
  3681  000CBA  6E04               	movwf	(___fladd@b+3)^0,c
  3682  000CBC  AE0D               	btfss	___fladd@signs^0,7,c
  3683  000CBE  EF63  F006         	goto	u2131
  3684  000CC2  EF65  F006         	goto	u2130
  3685  000CC6                     u2131:
  3686  000CC6  EF66  F006         	goto	l2370
  3687  000CCA                     u2130:
  3688  000CCA  8E04               	bsf	(___fladd@b+3)^0,7,c
  3689  000CCC                     l2370:
  3690  000CCC  C001  F001         	movff	___fladd@b,?___fladd
  3691  000CD0  C002  F002         	movff	___fladd@b+1,?___fladd+1
  3692  000CD4  C003  F003         	movff	___fladd@b+2,?___fladd+2
  3693  000CD8  C004  F004         	movff	___fladd@b+3,?___fladd+3
  3694  000CDC                     l695:
  3695  000CDC  0012               	return		;funcret
  3696  000CDE                     __end_of___fladd:
  3697                           	opt callstack 0
  3698                           
  3699 ;; *************** function ___flmul *****************
  3700 ;; Defined at:
  3701 ;;		line 8 in file "C:\Program Files (x86)\Microchip\xc8\v2.10\pic\sources\c90\common\sprcmul.c"
  3702 ;; Parameters:    Size  Location     Type
  3703 ;;  b               4    0[COMRAM] unsigned char 
  3704 ;;  a               4    4[COMRAM] unsigned char 
  3705 ;; Auto vars:     Size  Location     Type
  3706 ;;  prod            4   19[COMRAM] struct .
  3707 ;;  grs             4   13[COMRAM] unsigned long 
  3708 ;;  temp            2   23[COMRAM] struct .
  3709 ;;  bexp            1   18[COMRAM] unsigned char 
  3710 ;;  aexp            1   17[COMRAM] unsigned char 
  3711 ;;  sign            1   12[COMRAM] unsigned char 
  3712 ;; Return value:  Size  Location     Type
  3713 ;;                  4    0[COMRAM] unsigned char 
  3714 ;; Registers used:
  3715 ;;		wreg, status,2, status,0, prodl, prodh
  3716 ;; Tracked objects:
  3717 ;;		On entry : 0/0
  3718 ;;		On exit  : 0/0
  3719 ;;		Unchanged: 0/0
  3720 ;; Data sizes:     COMRAM   BANK0   BANK1   BANK2   BANK3   BANK4   BANK5   BANK6   BANK7
  3721 ;;      Params:         8       0       0       0       0       0       0       0       0
  3722 ;;      Locals:        13       0       0       0       0       0       0       0       0
  3723 ;;      Temps:          4       0       0       0       0       0       0       0       0
  3724 ;;      Totals:        25       0       0       0       0       0       0       0       0
  3725 ;;Total ram usage:       25 bytes
  3726 ;; Hardware stack levels used:    1
  3727 ;; This function calls:
  3728 ;;		Nothing
  3729 ;; This function is called by:
  3730 ;;		_display_float
  3731 ;; This function uses a non-reentrant model
  3732 ;;
  3733                           
  3734                           	psect	text16
  3735  000CDE                     __ptext16:
  3736                           	opt callstack 0
  3737  000CDE                     ___flmul:
  3738                           	opt callstack 29
  3739  000CDE  5004               	movf	(___flmul@b+3)^0,w,c
  3740  000CE0  0B80               	andlw	128
  3741  000CE2  6E0D               	movwf	___flmul@sign^0,c
  3742  000CE4  5004               	movf	(___flmul@b+3)^0,w,c
  3743  000CE6  2404               	addwf	(___flmul@b+3)^0,w,c
  3744  000CE8  6E13               	movwf	___flmul@bexp^0,c
  3745  000CEA  AE03               	btfss	(___flmul@b+2)^0,7,c
  3746  000CEC  EF7A  F006         	goto	u2261
  3747  000CF0  EF7C  F006         	goto	u2260
  3748  000CF4                     u2261:
  3749  000CF4  EF7D  F006         	goto	l2476
  3750  000CF8                     u2260:
  3751  000CF8  8013               	bsf	___flmul@bexp^0,0,c
  3752  000CFA                     l2476:
  3753  000CFA  5013               	movf	___flmul@bexp^0,w,c
  3754  000CFC  B4D8               	btfsc	status,2,c
  3755  000CFE  EF83  F006         	goto	u2271
  3756  000D02  EF85  F006         	goto	u2270
  3757  000D06                     u2271:
  3758  000D06  EF98  F006         	goto	l2484
  3759  000D0A                     u2270:
  3760  000D0A  2813               	incf	___flmul@bexp^0,w,c
  3761  000D0C  A4D8               	btfss	status,2,c
  3762  000D0E  EF8B  F006         	goto	u2281
  3763  000D12  EF8D  F006         	goto	u2280
  3764  000D16                     u2281:
  3765  000D16  EF95  F006         	goto	l2482
  3766  000D1A                     u2280:
  3767  000D1A  0E00               	movlw	0
  3768  000D1C  6E01               	movwf	___flmul@b^0,c
  3769  000D1E  0E00               	movlw	0
  3770  000D20  6E02               	movwf	(___flmul@b+1)^0,c
  3771  000D22  0E00               	movlw	0
  3772  000D24  6E03               	movwf	(___flmul@b+2)^0,c
  3773  000D26  0E00               	movlw	0
  3774  000D28  6E04               	movwf	(___flmul@b+3)^0,c
  3775  000D2A                     l2482:
  3776  000D2A  8E03               	bsf	(___flmul@b+2)^0,7,c
  3777  000D2C  EFA0  F006         	goto	l2486
  3778  000D30                     l2484:
  3779  000D30  0E00               	movlw	0
  3780  000D32  6E01               	movwf	___flmul@b^0,c
  3781  000D34  0E00               	movlw	0
  3782  000D36  6E02               	movwf	(___flmul@b+1)^0,c
  3783  000D38  0E00               	movlw	0
  3784  000D3A  6E03               	movwf	(___flmul@b+2)^0,c
  3785  000D3C  0E00               	movlw	0
  3786  000D3E  6E04               	movwf	(___flmul@b+3)^0,c
  3787  000D40                     l2486:
  3788  000D40  5008               	movf	(___flmul@a+3)^0,w,c
  3789  000D42  0B80               	andlw	128
  3790  000D44  1A0D               	xorwf	___flmul@sign^0,f,c
  3791  000D46  5008               	movf	(___flmul@a+3)^0,w,c
  3792  000D48  2408               	addwf	(___flmul@a+3)^0,w,c
  3793  000D4A  6E12               	movwf	___flmul@aexp^0,c
  3794  000D4C  AE07               	btfss	(___flmul@a+2)^0,7,c
  3795  000D4E  EFAB  F006         	goto	u2291
  3796  000D52  EFAD  F006         	goto	u2290
  3797  000D56                     u2291:
  3798  000D56  EFAE  F006         	goto	l2494
  3799  000D5A                     u2290:
  3800  000D5A  8012               	bsf	___flmul@aexp^0,0,c
  3801  000D5C                     l2494:
  3802  000D5C  5012               	movf	___flmul@aexp^0,w,c
  3803  000D5E  B4D8               	btfsc	status,2,c
  3804  000D60  EFB4  F006         	goto	u2301
  3805  000D64  EFB6  F006         	goto	u2300
  3806  000D68                     u2301:
  3807  000D68  EFC9  F006         	goto	l2502
  3808  000D6C                     u2300:
  3809  000D6C  2812               	incf	___flmul@aexp^0,w,c
  3810  000D6E  A4D8               	btfss	status,2,c
  3811  000D70  EFBC  F006         	goto	u2311
  3812  000D74  EFBE  F006         	goto	u2310
  3813  000D78                     u2311:
  3814  000D78  EFC6  F006         	goto	l2500
  3815  000D7C                     u2310:
  3816  000D7C  0E00               	movlw	0
  3817  000D7E  6E05               	movwf	___flmul@a^0,c
  3818  000D80  0E00               	movlw	0
  3819  000D82  6E06               	movwf	(___flmul@a+1)^0,c
  3820  000D84  0E00               	movlw	0
  3821  000D86  6E07               	movwf	(___flmul@a+2)^0,c
  3822  000D88  0E00               	movlw	0
  3823  000D8A  6E08               	movwf	(___flmul@a+3)^0,c
  3824  000D8C                     l2500:
  3825  000D8C  8E07               	bsf	(___flmul@a+2)^0,7,c
  3826  000D8E  EFD1  F006         	goto	l772
  3827  000D92                     l2502:
  3828  000D92  0E00               	movlw	0
  3829  000D94  6E05               	movwf	___flmul@a^0,c
  3830  000D96  0E00               	movlw	0
  3831  000D98  6E06               	movwf	(___flmul@a+1)^0,c
  3832  000D9A  0E00               	movlw	0
  3833  000D9C  6E07               	movwf	(___flmul@a+2)^0,c
  3834  000D9E  0E00               	movlw	0
  3835  000DA0  6E08               	movwf	(___flmul@a+3)^0,c
  3836  000DA2                     l772:
  3837  000DA2  5012               	movf	___flmul@aexp^0,w,c
  3838  000DA4  B4D8               	btfsc	status,2,c
  3839  000DA6  EFD7  F006         	goto	u2321
  3840  000DAA  EFD9  F006         	goto	u2320
  3841  000DAE                     u2321:
  3842  000DAE  EFE1  F006         	goto	l2506
  3843  000DB2                     u2320:
  3844  000DB2  5013               	movf	___flmul@bexp^0,w,c
  3845  000DB4  A4D8               	btfss	status,2,c
  3846  000DB6  EFDF  F006         	goto	u2331
  3847  000DBA  EFE1  F006         	goto	u2330
  3848  000DBE                     u2331:
  3849  000DBE  EFEB  F006         	goto	l2510
  3850  000DC2                     u2330:
  3851  000DC2                     l2506:
  3852  000DC2  0E00               	movlw	0
  3853  000DC4  6E01               	movwf	?___flmul^0,c
  3854  000DC6  0E00               	movlw	0
  3855  000DC8  6E02               	movwf	(?___flmul+1)^0,c
  3856  000DCA  0E00               	movlw	0
  3857  000DCC  6E03               	movwf	(?___flmul+2)^0,c
  3858  000DCE  0E00               	movlw	0
  3859  000DD0  6E04               	movwf	(?___flmul+3)^0,c
  3860  000DD2  EF83  F008         	goto	l776
  3861  000DD6                     l2510:
  3862  000DD6  5007               	movf	(___flmul@a+2)^0,w,c
  3863  000DD8  0201               	mulwf	___flmul@b^0,c
  3864  000DDA  CFF3 F018          	movff	prodl,___flmul@temp
  3865  000DDE  CFF4 F019          	movff	prodh,___flmul@temp+1
  3866  000DE2  5018               	movf	___flmul@temp^0,w,c
  3867  000DE4  6E0E               	movwf	___flmul@grs^0,c
  3868  000DE6  6A0F               	clrf	(___flmul@grs+1)^0,c
  3869  000DE8  6A10               	clrf	(___flmul@grs+2)^0,c
  3870  000DEA  6A11               	clrf	(___flmul@grs+3)^0,c
  3871  000DEC  5019               	movf	(___flmul@temp+1)^0,w,c
  3872  000DEE  6E14               	movwf	___flmul@prod^0,c
  3873  000DF0  6A15               	clrf	(___flmul@prod+1)^0,c
  3874  000DF2  6A16               	clrf	(___flmul@prod+2)^0,c
  3875  000DF4  6A17               	clrf	(___flmul@prod+3)^0,c
  3876  000DF6  5006               	movf	(___flmul@a+1)^0,w,c
  3877  000DF8  0202               	mulwf	(___flmul@b+1)^0,c
  3878  000DFA  CFF3 F018          	movff	prodl,___flmul@temp
  3879  000DFE  CFF4 F019          	movff	prodh,___flmul@temp+1
  3880  000E02  5018               	movf	___flmul@temp^0,w,c
  3881  000E04  260E               	addwf	___flmul@grs^0,f,c
  3882  000E06  0E00               	movlw	0
  3883  000E08  220F               	addwfc	(___flmul@grs+1)^0,f,c
  3884  000E0A  2210               	addwfc	(___flmul@grs+2)^0,f,c
  3885  000E0C  2211               	addwfc	(___flmul@grs+3)^0,f,c
  3886  000E0E  5019               	movf	(___flmul@temp+1)^0,w,c
  3887  000E10  2614               	addwf	___flmul@prod^0,f,c
  3888  000E12  0E00               	movlw	0
  3889  000E14  2215               	addwfc	(___flmul@prod+1)^0,f,c
  3890  000E16  2216               	addwfc	(___flmul@prod+2)^0,f,c
  3891  000E18  2217               	addwfc	(___flmul@prod+3)^0,f,c
  3892  000E1A  5005               	movf	___flmul@a^0,w,c
  3893  000E1C  0203               	mulwf	(___flmul@b+2)^0,c
  3894  000E1E  CFF3 F018          	movff	prodl,___flmul@temp
  3895  000E22  CFF4 F019          	movff	prodh,___flmul@temp+1
  3896  000E26  5018               	movf	___flmul@temp^0,w,c
  3897  000E28  260E               	addwf	___flmul@grs^0,f,c
  3898  000E2A  0E00               	movlw	0
  3899  000E2C  220F               	addwfc	(___flmul@grs+1)^0,f,c
  3900  000E2E  2210               	addwfc	(___flmul@grs+2)^0,f,c
  3901  000E30  2211               	addwfc	(___flmul@grs+3)^0,f,c
  3902  000E32  5019               	movf	(___flmul@temp+1)^0,w,c
  3903  000E34  2614               	addwf	___flmul@prod^0,f,c
  3904  000E36  0E00               	movlw	0
  3905  000E38  2215               	addwfc	(___flmul@prod+1)^0,f,c
  3906  000E3A  2216               	addwfc	(___flmul@prod+2)^0,f,c
  3907  000E3C  2217               	addwfc	(___flmul@prod+3)^0,f,c
  3908  000E3E  C010  F011         	movff	___flmul@grs+2,___flmul@grs+3
  3909  000E42  C00F  F010         	movff	___flmul@grs+1,___flmul@grs+2
  3910  000E46  C00E  F00F         	movff	___flmul@grs,___flmul@grs+1
  3911  000E4A  6A0E               	clrf	___flmul@grs^0,c
  3912  000E4C  5005               	movf	___flmul@a^0,w,c
  3913  000E4E  0202               	mulwf	(___flmul@b+1)^0,c
  3914  000E50  CFF3 F018          	movff	prodl,___flmul@temp
  3915  000E54  CFF4 F019          	movff	prodh,___flmul@temp+1
  3916  000E58  5018               	movf	___flmul@temp^0,w,c
  3917  000E5A  260E               	addwf	___flmul@grs^0,f,c
  3918  000E5C  5019               	movf	(___flmul@temp+1)^0,w,c
  3919  000E5E  220F               	addwfc	(___flmul@grs+1)^0,f,c
  3920  000E60  0E00               	movlw	0
  3921  000E62  2210               	addwfc	(___flmul@grs+2)^0,f,c
  3922  000E64  0E00               	movlw	0
  3923  000E66  2211               	addwfc	(___flmul@grs+3)^0,f,c
  3924  000E68  5006               	movf	(___flmul@a+1)^0,w,c
  3925  000E6A  0201               	mulwf	___flmul@b^0,c
  3926  000E6C  CFF3 F018          	movff	prodl,___flmul@temp
  3927  000E70  CFF4 F019          	movff	prodh,___flmul@temp+1
  3928  000E74  5018               	movf	___flmul@temp^0,w,c
  3929  000E76  260E               	addwf	___flmul@grs^0,f,c
  3930  000E78  5019               	movf	(___flmul@temp+1)^0,w,c
  3931  000E7A  220F               	addwfc	(___flmul@grs+1)^0,f,c
  3932  000E7C  0E00               	movlw	0
  3933  000E7E  2210               	addwfc	(___flmul@grs+2)^0,f,c
  3934  000E80  0E00               	movlw	0
  3935  000E82  2211               	addwfc	(___flmul@grs+3)^0,f,c
  3936  000E84  C010  F011         	movff	___flmul@grs+2,___flmul@grs+3
  3937  000E88  C00F  F010         	movff	___flmul@grs+1,___flmul@grs+2
  3938  000E8C  C00E  F00F         	movff	___flmul@grs,___flmul@grs+1
  3939  000E90  6A0E               	clrf	___flmul@grs^0,c
  3940  000E92  5005               	movf	___flmul@a^0,w,c
  3941  000E94  0201               	mulwf	___flmul@b^0,c
  3942  000E96  CFF3 F018          	movff	prodl,___flmul@temp
  3943  000E9A  CFF4 F019          	movff	prodh,___flmul@temp+1
  3944  000E9E  5018               	movf	___flmul@temp^0,w,c
  3945  000EA0  260E               	addwf	___flmul@grs^0,f,c
  3946  000EA2  5019               	movf	(___flmul@temp+1)^0,w,c
  3947  000EA4  220F               	addwfc	(___flmul@grs+1)^0,f,c
  3948  000EA6  0E00               	movlw	0
  3949  000EA8  2210               	addwfc	(___flmul@grs+2)^0,f,c
  3950  000EAA  0E00               	movlw	0
  3951  000EAC  2211               	addwfc	(___flmul@grs+3)^0,f,c
  3952  000EAE  5007               	movf	(___flmul@a+2)^0,w,c
  3953  000EB0  0202               	mulwf	(___flmul@b+1)^0,c
  3954  000EB2  CFF3 F018          	movff	prodl,___flmul@temp
  3955  000EB6  CFF4 F019          	movff	prodh,___flmul@temp+1
  3956  000EBA  5018               	movf	___flmul@temp^0,w,c
  3957  000EBC  2614               	addwf	___flmul@prod^0,f,c
  3958  000EBE  5019               	movf	(___flmul@temp+1)^0,w,c
  3959  000EC0  2215               	addwfc	(___flmul@prod+1)^0,f,c
  3960  000EC2  0E00               	movlw	0
  3961  000EC4  2216               	addwfc	(___flmul@prod+2)^0,f,c
  3962  000EC6  0E00               	movlw	0
  3963  000EC8  2217               	addwfc	(___flmul@prod+3)^0,f,c
  3964  000ECA  5006               	movf	(___flmul@a+1)^0,w,c
  3965  000ECC  0203               	mulwf	(___flmul@b+2)^0,c
  3966  000ECE  CFF3 F018          	movff	prodl,___flmul@temp
  3967  000ED2  CFF4 F019          	movff	prodh,___flmul@temp+1
  3968  000ED6  5018               	movf	___flmul@temp^0,w,c
  3969  000ED8  2614               	addwf	___flmul@prod^0,f,c
  3970  000EDA  5019               	movf	(___flmul@temp+1)^0,w,c
  3971  000EDC  2215               	addwfc	(___flmul@prod+1)^0,f,c
  3972  000EDE  0E00               	movlw	0
  3973  000EE0  2216               	addwfc	(___flmul@prod+2)^0,f,c
  3974  000EE2  0E00               	movlw	0
  3975  000EE4  2217               	addwfc	(___flmul@prod+3)^0,f,c
  3976  000EE6  5007               	movf	(___flmul@a+2)^0,w,c
  3977  000EE8  0203               	mulwf	(___flmul@b+2)^0,c
  3978  000EEA  CFF3 F018          	movff	prodl,___flmul@temp
  3979  000EEE  CFF4 F019          	movff	prodh,___flmul@temp+1
  3980  000EF2  5018               	movf	___flmul@temp^0,w,c
  3981  000EF4  6E09               	movwf	??___flmul^0,c
  3982  000EF6  5019               	movf	(___flmul@temp+1)^0,w,c
  3983  000EF8  6E0A               	movwf	(??___flmul+1)^0,c
  3984  000EFA  6A0B               	clrf	(??___flmul+2)^0,c
  3985  000EFC  6A0C               	clrf	(??___flmul+3)^0,c
  3986  000EFE  C00B  F00C         	movff	??___flmul+2,??___flmul+3
  3987  000F02  C00A  F00B         	movff	??___flmul+1,??___flmul+2
  3988  000F06  C009  F00A         	movff	??___flmul,??___flmul+1
  3989  000F0A  6A09               	clrf	??___flmul^0,c
  3990  000F0C  5009               	movf	??___flmul^0,w,c
  3991  000F0E  2614               	addwf	___flmul@prod^0,f,c
  3992  000F10  500A               	movf	(??___flmul+1)^0,w,c
  3993  000F12  2215               	addwfc	(___flmul@prod+1)^0,f,c
  3994  000F14  500B               	movf	(??___flmul+2)^0,w,c
  3995  000F16  2216               	addwfc	(___flmul@prod+2)^0,f,c
  3996  000F18  500C               	movf	(??___flmul+3)^0,w,c
  3997  000F1A  2217               	addwfc	(___flmul@prod+3)^0,f,c
  3998  000F1C  C00E  F009         	movff	___flmul@grs,??___flmul
  3999  000F20  C00F  F00A         	movff	___flmul@grs+1,??___flmul+1
  4000  000F24  C010  F00B         	movff	___flmul@grs+2,??___flmul+2
  4001  000F28  C011  F00C         	movff	___flmul@grs+3,??___flmul+3
  4002  000F2C  0E19               	movlw	25
  4003  000F2E  EF9E  F007         	goto	u2340
  4004  000F32                     u2345:
  4005  000F32  90D8               	bcf	status,0,c
  4006  000F34  320C               	rrcf	(??___flmul+3)^0,f,c
  4007  000F36  320B               	rrcf	(??___flmul+2)^0,f,c
  4008  000F38  320A               	rrcf	(??___flmul+1)^0,f,c
  4009  000F3A  3209               	rrcf	??___flmul^0,f,c
  4010  000F3C                     u2340:
  4011  000F3C  2EE8               	decfsz	wreg,f,c
  4012  000F3E  EF99  F007         	goto	u2345
  4013  000F42  5009               	movf	??___flmul^0,w,c
  4014  000F44  2614               	addwf	___flmul@prod^0,f,c
  4015  000F46  500A               	movf	(??___flmul+1)^0,w,c
  4016  000F48  2215               	addwfc	(___flmul@prod+1)^0,f,c
  4017  000F4A  500B               	movf	(??___flmul+2)^0,w,c
  4018  000F4C  2216               	addwfc	(___flmul@prod+2)^0,f,c
  4019  000F4E  500C               	movf	(??___flmul+3)^0,w,c
  4020  000F50  2217               	addwfc	(___flmul@prod+3)^0,f,c
  4021  000F52  C010  F011         	movff	___flmul@grs+2,___flmul@grs+3
  4022  000F56  C00F  F010         	movff	___flmul@grs+1,___flmul@grs+2
  4023  000F5A  C00E  F00F         	movff	___flmul@grs,___flmul@grs+1
  4024  000F5E  6A0E               	clrf	___flmul@grs^0,c
  4025  000F60  5012               	movf	___flmul@aexp^0,w,c
  4026  000F62  C013  F009         	movff	___flmul@bexp,??___flmul
  4027  000F66  6A0A               	clrf	(??___flmul+1)^0,c
  4028  000F68  2609               	addwf	??___flmul^0,f,c
  4029  000F6A  0E00               	movlw	0
  4030  000F6C  220A               	addwfc	(??___flmul+1)^0,f,c
  4031  000F6E  0E82               	movlw	130
  4032  000F70  2409               	addwf	??___flmul^0,w,c
  4033  000F72  6E18               	movwf	___flmul@temp^0,c
  4034  000F74  0EFF               	movlw	255
  4035  000F76  200A               	addwfc	(??___flmul+1)^0,w,c
  4036  000F78  6E19               	movwf	(___flmul@temp+1)^0,c
  4037  000F7A  EFD4  F007         	goto	l2558
  4038  000F7E                     l2552:
  4039  000F7E  90D8               	bcf	status,0,c
  4040  000F80  3614               	rlcf	___flmul@prod^0,f,c
  4041  000F82  3615               	rlcf	(___flmul@prod+1)^0,f,c
  4042  000F84  3616               	rlcf	(___flmul@prod+2)^0,f,c
  4043  000F86  3617               	rlcf	(___flmul@prod+3)^0,f,c
  4044  000F88  AE11               	btfss	(___flmul@grs+3)^0,7,c
  4045  000F8A  EFC9  F007         	goto	u2351
  4046  000F8E  EFCB  F007         	goto	u2350
  4047  000F92                     u2351:
  4048  000F92  EFCC  F007         	goto	l779
  4049  000F96                     u2350:
  4050  000F96  8014               	bsf	___flmul@prod^0,0,c
  4051  000F98                     l779:
  4052  000F98  90D8               	bcf	status,0,c
  4053  000F9A  360E               	rlcf	___flmul@grs^0,f,c
  4054  000F9C  360F               	rlcf	(___flmul@grs+1)^0,f,c
  4055  000F9E  3610               	rlcf	(___flmul@grs+2)^0,f,c
  4056  000FA0  3611               	rlcf	(___flmul@grs+3)^0,f,c
  4057  000FA2  0618               	decf	___flmul@temp^0,f,c
  4058  000FA4  A0D8               	btfss	status,0,c
  4059  000FA6  0619               	decf	(___flmul@temp+1)^0,f,c
  4060  000FA8                     l2558:
  4061  000FA8  AE16               	btfss	(___flmul@prod+2)^0,7,c
  4062  000FAA  EFD9  F007         	goto	u2361
  4063  000FAE  EFDB  F007         	goto	u2360
  4064  000FB2                     u2361:
  4065  000FB2  EFBF  F007         	goto	l2552
  4066  000FB6                     u2360:
  4067  000FB6  0E00               	movlw	0
  4068  000FB8  6E12               	movwf	___flmul@aexp^0,c
  4069  000FBA  AE11               	btfss	(___flmul@grs+3)^0,7,c
  4070  000FBC  EFE2  F007         	goto	u2371
  4071  000FC0  EFE4  F007         	goto	u2370
  4072  000FC4                     u2371:
  4073  000FC4  EF08  F008         	goto	l781
  4074  000FC8                     u2370:
  4075  000FC8  0EFF               	movlw	255
  4076  000FCA  140E               	andwf	___flmul@grs^0,w,c
  4077  000FCC  6E09               	movwf	??___flmul^0,c
  4078  000FCE  0EFF               	movlw	255
  4079  000FD0  140F               	andwf	(___flmul@grs+1)^0,w,c
  4080  000FD2  6E0A               	movwf	(??___flmul+1)^0,c
  4081  000FD4  0EFF               	movlw	255
  4082  000FD6  1410               	andwf	(___flmul@grs+2)^0,w,c
  4083  000FD8  6E0B               	movwf	(??___flmul+2)^0,c
  4084  000FDA  0E7F               	movlw	127
  4085  000FDC  1411               	andwf	(___flmul@grs+3)^0,w,c
  4086  000FDE  6E0C               	movwf	(??___flmul+3)^0,c
  4087  000FE0  5009               	movf	??___flmul^0,w,c
  4088  000FE2  100A               	iorwf	(??___flmul+1)^0,w,c
  4089  000FE4  100B               	iorwf	(??___flmul+2)^0,w,c
  4090  000FE6  100C               	iorwf	(??___flmul+3)^0,w,c
  4091  000FE8  B4D8               	btfsc	status,2,c
  4092  000FEA  EFF9  F007         	goto	u2381
  4093  000FEE  EFFB  F007         	goto	u2380
  4094  000FF2                     u2381:
  4095  000FF2  EFFF  F007         	goto	l782
  4096  000FF6                     u2380:
  4097  000FF6                     l2566:
  4098  000FF6  0E01               	movlw	1
  4099  000FF8  6E12               	movwf	___flmul@aexp^0,c
  4100  000FFA  EF08  F008         	goto	l781
  4101  000FFE                     l782:
  4102  000FFE  A014               	btfss	___flmul@prod^0,0,c
  4103  001000  EF04  F008         	goto	u2391
  4104  001004  EF06  F008         	goto	u2390
  4105  001008                     u2391:
  4106  001008  EF08  F008         	goto	l781
  4107  00100C                     u2390:
  4108  00100C  EFFB  F007         	goto	l2566
  4109  001010                     l781:
  4110  001010  5012               	movf	___flmul@aexp^0,w,c
  4111  001012  B4D8               	btfsc	status,2,c
  4112  001014  EF0E  F008         	goto	u2401
  4113  001018  EF10  F008         	goto	u2400
  4114  00101C                     u2401:
  4115  00101C  EF34  F008         	goto	l2578
  4116  001020                     u2400:
  4117  001020  0E01               	movlw	1
  4118  001022  2614               	addwf	___flmul@prod^0,f,c
  4119  001024  0E00               	movlw	0
  4120  001026  2215               	addwfc	(___flmul@prod+1)^0,f,c
  4121  001028  2216               	addwfc	(___flmul@prod+2)^0,f,c
  4122  00102A  2217               	addwfc	(___flmul@prod+3)^0,f,c
  4123  00102C  A017               	btfss	(___flmul@prod+3)^0,0,c
  4124  00102E  EF1B  F008         	goto	u2411
  4125  001032  EF1D  F008         	goto	u2410
  4126  001036                     u2411:
  4127  001036  EF34  F008         	goto	l2578
  4128  00103A                     u2410:
  4129  00103A  C014  F009         	movff	___flmul@prod,??___flmul
  4130  00103E  C015  F00A         	movff	___flmul@prod+1,??___flmul+1
  4131  001042  C016  F00B         	movff	___flmul@prod+2,??___flmul+2
  4132  001046  C017  F00C         	movff	___flmul@prod+3,??___flmul+3
  4133  00104A  340C               	rlcf	(??___flmul+3)^0,w,c
  4134  00104C  320C               	rrcf	(??___flmul+3)^0,f,c
  4135  00104E  320B               	rrcf	(??___flmul+2)^0,f,c
  4136  001050  320A               	rrcf	(??___flmul+1)^0,f,c
  4137  001052  3209               	rrcf	??___flmul^0,f,c
  4138  001054  C009  F014         	movff	??___flmul,___flmul@prod
  4139  001058  C00A  F015         	movff	??___flmul+1,___flmul@prod+1
  4140  00105C  C00B  F016         	movff	??___flmul+2,___flmul@prod+2
  4141  001060  C00C  F017         	movff	??___flmul+3,___flmul@prod+3
  4142  001064  4A18               	infsnz	___flmul@temp^0,f,c
  4143  001066  2A19               	incf	(___flmul@temp+1)^0,f,c
  4144  001068                     l2578:
  4145  001068  BE19               	btfsc	(___flmul@temp+1)^0,7,c
  4146  00106A  EF3F  F008         	goto	u2421
  4147  00106E  5019               	movf	(___flmul@temp+1)^0,w,c
  4148  001070  E108               	bnz	u2420
  4149  001072  2818               	incf	___flmul@temp^0,w,c
  4150  001074  A0D8               	btfss	status,0,c
  4151  001076  EF3F  F008         	goto	u2421
  4152  00107A  EF41  F008         	goto	u2420
  4153  00107E                     u2421:
  4154  00107E  EF4B  F008         	goto	l2582
  4155  001082                     u2420:
  4156  001082  0E00               	movlw	0
  4157  001084  6E14               	movwf	___flmul@prod^0,c
  4158  001086  0E00               	movlw	0
  4159  001088  6E15               	movwf	(___flmul@prod+1)^0,c
  4160  00108A  0E80               	movlw	128
  4161  00108C  6E16               	movwf	(___flmul@prod+2)^0,c
  4162  00108E  0E7F               	movlw	127
  4163  001090  6E17               	movwf	(___flmul@prod+3)^0,c
  4164  001092  EF79  F008         	goto	l2594
  4165  001096                     l2582:
  4166  001096  BE19               	btfsc	(___flmul@temp+1)^0,7,c
  4167  001098  EF58  F008         	goto	u2430
  4168  00109C  5019               	movf	(___flmul@temp+1)^0,w,c
  4169  00109E  E106               	bnz	u2431
  4170  0010A0  0418               	decf	___flmul@temp^0,w,c
  4171  0010A2  B0D8               	btfsc	status,0,c
  4172  0010A4  EF56  F008         	goto	u2431
  4173  0010A8  EF58  F008         	goto	u2430
  4174  0010AC                     u2431:
  4175  0010AC  EF64  F008         	goto	l789
  4176  0010B0                     u2430:
  4177  0010B0  0E00               	movlw	0
  4178  0010B2  6E14               	movwf	___flmul@prod^0,c
  4179  0010B4  0E00               	movlw	0
  4180  0010B6  6E15               	movwf	(___flmul@prod+1)^0,c
  4181  0010B8  0E00               	movlw	0
  4182  0010BA  6E16               	movwf	(___flmul@prod+2)^0,c
  4183  0010BC  0E00               	movlw	0
  4184  0010BE  6E17               	movwf	(___flmul@prod+3)^0,c
  4185  0010C0  0E00               	movlw	0
  4186  0010C2  6E0D               	movwf	___flmul@sign^0,c
  4187  0010C4  EF79  F008         	goto	l2594
  4188  0010C8                     l789:
  4189  0010C8  C018  F013         	movff	___flmul@temp,___flmul@bexp
  4190  0010CC  0EFF               	movlw	255
  4191  0010CE  1614               	andwf	___flmul@prod^0,f,c
  4192  0010D0  0EFF               	movlw	255
  4193  0010D2  1615               	andwf	(___flmul@prod+1)^0,f,c
  4194  0010D4  0E7F               	movlw	127
  4195  0010D6  1616               	andwf	(___flmul@prod+2)^0,f,c
  4196  0010D8  0E00               	movlw	0
  4197  0010DA  1617               	andwf	(___flmul@prod+3)^0,f,c
  4198  0010DC  A013               	btfss	___flmul@bexp^0,0,c
  4199  0010DE  EF73  F008         	goto	u2441
  4200  0010E2  EF75  F008         	goto	u2440
  4201  0010E6                     u2441:
  4202  0010E6  EF76  F008         	goto	l2592
  4203  0010EA                     u2440:
  4204  0010EA  8E16               	bsf	(___flmul@prod+2)^0,7,c
  4205  0010EC                     l2592:
  4206  0010EC  90D8               	bcf	status,0,c
  4207  0010EE  3013               	rrcf	___flmul@bexp^0,w,c
  4208  0010F0  6E17               	movwf	(___flmul@prod+3)^0,c
  4209  0010F2                     l2594:
  4210  0010F2  500D               	movf	___flmul@sign^0,w,c
  4211  0010F4  1217               	iorwf	(___flmul@prod+3)^0,f,c
  4212  0010F6  C014  F001         	movff	___flmul@prod,?___flmul
  4213  0010FA  C015  F002         	movff	___flmul@prod+1,?___flmul+1
  4214  0010FE  C016  F003         	movff	___flmul@prod+2,?___flmul+2
  4215  001102  C017  F004         	movff	___flmul@prod+3,?___flmul+3
  4216  001106                     l776:
  4217  001106  0012               	return		;funcret
  4218  001108                     __end_of___flmul:
  4219                           	opt callstack 0
  4220                           
  4221 ;; *************** function _atol *****************
  4222 ;; Defined at:
  4223 ;;		line 5 in file "C:\Program Files (x86)\Microchip\xc8\v2.10\pic\sources\c90\common\atol.c"
  4224 ;; Parameters:    Size  Location     Type
  4225 ;;  s               2   12[COMRAM] PTR const unsigned char 
  4226 ;;		 -> main@op2(10), main@op1(10), 
  4227 ;; Auto vars:     Size  Location     Type
  4228 ;;  a               4   21[COMRAM] long 
  4229 ;;  c               1   25[COMRAM] unsigned char 
  4230 ;;  sign            1   20[COMRAM] unsigned char 
  4231 ;; Return value:  Size  Location     Type
  4232 ;;                  4   12[COMRAM] long 
  4233 ;; Registers used:
  4234 ;;		wreg, fsr2l, fsr2h, status,2, status,0, cstack
  4235 ;; Tracked objects:
  4236 ;;		On entry : 0/0
  4237 ;;		On exit  : 0/0
  4238 ;;		Unchanged: 0/0
  4239 ;; Data sizes:     COMRAM   BANK0   BANK1   BANK2   BANK3   BANK4   BANK5   BANK6   BANK7
  4240 ;;      Params:         4       0       0       0       0       0       0       0       0
  4241 ;;      Locals:         6       0       0       0       0       0       0       0       0
  4242 ;;      Temps:          4       0       0       0       0       0       0       0       0
  4243 ;;      Totals:        14       0       0       0       0       0       0       0       0
  4244 ;;Total ram usage:       14 bytes
  4245 ;; Hardware stack levels used:    1
  4246 ;; Hardware stack levels required when called:    1
  4247 ;; This function calls:
  4248 ;;		___lmul
  4249 ;;		_isdigit
  4250 ;; This function is called by:
  4251 ;;		_main
  4252 ;; This function uses a non-reentrant model
  4253 ;;
  4254                           
  4255                           	psect	text17
  4256  001C7A                     __ptext17:
  4257                           	opt callstack 0
  4258  001C7A                     _atol:
  4259                           	opt callstack 29
  4260  001C7A                     l834:
  4261  001C7A  C00D  FFD9         	movff	atol@s,fsr2l
  4262  001C7E  C00E  FFDA         	movff	atol@s+1,fsr2h
  4263  001C82  50DF               	movf	indf2,w,c
  4264  001C84  6E1A               	movwf	atol@c^0,c
  4265  001C86  4A0D               	infsnz	atol@s^0,f,c
  4266  001C88  2A0E               	incf	(atol@s+1)^0,f,c
  4267  001C8A  0E20               	movlw	32
  4268  001C8C  181A               	xorwf	atol@c^0,w,c
  4269  001C8E  B4D8               	btfsc	status,2,c
  4270  001C90  EF4C  F00E         	goto	u2831
  4271  001C94  EF4E  F00E         	goto	u2830
  4272  001C98                     u2831:
  4273  001C98  EF3D  F00E         	goto	l834
  4274  001C9C                     u2830:
  4275  001C9C  0E09               	movlw	9
  4276  001C9E  181A               	xorwf	atol@c^0,w,c
  4277  001CA0  B4D8               	btfsc	status,2,c
  4278  001CA2  EF55  F00E         	goto	u2841
  4279  001CA6  EF57  F00E         	goto	u2840
  4280  001CAA                     u2841:
  4281  001CAA  EF3D  F00E         	goto	l834
  4282  001CAE                     u2840:
  4283  001CAE  0E00               	movlw	0
  4284  001CB0  6E16               	movwf	atol@a^0,c
  4285  001CB2  0E00               	movlw	0
  4286  001CB4  6E17               	movwf	(atol@a+1)^0,c
  4287  001CB6  0E00               	movlw	0
  4288  001CB8  6E18               	movwf	(atol@a+2)^0,c
  4289  001CBA  0E00               	movlw	0
  4290  001CBC  6E19               	movwf	(atol@a+3)^0,c
  4291  001CBE  0E00               	movlw	0
  4292  001CC0  6E15               	movwf	atol@sign^0,c
  4293  001CC2  0E2D               	movlw	45
  4294  001CC4  181A               	xorwf	atol@c^0,w,c
  4295  001CC6  A4D8               	btfss	status,2,c
  4296  001CC8  EF68  F00E         	goto	u2851
  4297  001CCC  EF6A  F00E         	goto	u2850
  4298  001CD0                     u2851:
  4299  001CD0  EF75  F00E         	goto	l2892
  4300  001CD4                     u2850:
  4301  001CD4  2A15               	incf	atol@sign^0,f,c
  4302  001CD6                     l2888:
  4303  001CD6  C00D  FFD9         	movff	atol@s,fsr2l
  4304  001CDA  C00E  FFDA         	movff	atol@s+1,fsr2h
  4305  001CDE  50DF               	movf	indf2,w,c
  4306  001CE0  6E1A               	movwf	atol@c^0,c
  4307  001CE2  4A0D               	infsnz	atol@s^0,f,c
  4308  001CE4  2A0E               	incf	(atol@s+1)^0,f,c
  4309  001CE6  EFA4  F00E         	goto	l2904
  4310  001CEA                     l2892:
  4311  001CEA  0E2B               	movlw	43
  4312  001CEC  181A               	xorwf	atol@c^0,w,c
  4313  001CEE  A4D8               	btfss	status,2,c
  4314  001CF0  EF7C  F00E         	goto	u2861
  4315  001CF4  EF7E  F00E         	goto	u2860
  4316  001CF8                     u2861:
  4317  001CF8  EFA4  F00E         	goto	l2904
  4318  001CFC                     u2860:
  4319  001CFC  EF6B  F00E         	goto	l2888
  4320  001D00                     l2898:
  4321  001D00  C016  F001         	movff	atol@a,___lmul@multiplier
  4322  001D04  C017  F002         	movff	atol@a+1,___lmul@multiplier+1
  4323  001D08  C018  F003         	movff	atol@a+2,___lmul@multiplier+2
  4324  001D0C  C019  F004         	movff	atol@a+3,___lmul@multiplier+3
  4325  001D10  0E0A               	movlw	10
  4326  001D12  6E05               	movwf	___lmul@multiplicand^0,c
  4327  001D14  0E00               	movlw	0
  4328  001D16  6E06               	movwf	(___lmul@multiplicand+1)^0,c
  4329  001D18  0E00               	movlw	0
  4330  001D1A  6E07               	movwf	(___lmul@multiplicand+2)^0,c
  4331  001D1C  0E00               	movlw	0
  4332  001D1E  6E08               	movwf	(___lmul@multiplicand+3)^0,c
  4333  001D20  ECA5  F011         	call	___lmul	;wreg free
  4334  001D24  C01A  F011         	movff	atol@c,??_atol
  4335  001D28  0ED0               	movlw	208
  4336  001D2A  2611               	addwf	??_atol^0,f,c
  4337  001D2C  5011               	movf	??_atol^0,w,c
  4338  001D2E  2401               	addwf	?___lmul^0,w,c
  4339  001D30  6E16               	movwf	atol@a^0,c
  4340  001D32  0E00               	movlw	0
  4341  001D34  2002               	addwfc	(?___lmul+1)^0,w,c
  4342  001D36  6E17               	movwf	(atol@a+1)^0,c
  4343  001D38  0E00               	movlw	0
  4344  001D3A  2003               	addwfc	(?___lmul+2)^0,w,c
  4345  001D3C  6E18               	movwf	(atol@a+2)^0,c
  4346  001D3E  0E00               	movlw	0
  4347  001D40  2004               	addwfc	(?___lmul+3)^0,w,c
  4348  001D42  6E19               	movwf	(atol@a+3)^0,c
  4349  001D44  EF6B  F00E         	goto	l2888
  4350  001D48                     l2904:
  4351  001D48  501A               	movf	atol@c^0,w,c
  4352  001D4A  EC57  F013         	call	_isdigit
  4353  001D4E  B0D8               	btfsc	status,0,c
  4354  001D50  EFAC  F00E         	goto	u2871
  4355  001D54  EFAE  F00E         	goto	u2870
  4356  001D58                     u2871:
  4357  001D58  EF80  F00E         	goto	l2898
  4358  001D5C                     u2870:
  4359  001D5C  5015               	movf	atol@sign^0,w,c
  4360  001D5E  B4D8               	btfsc	status,2,c
  4361  001D60  EFB4  F00E         	goto	u2881
  4362  001D64  EFB6  F00E         	goto	u2880
  4363  001D68                     u2881:
  4364  001D68  EFD1  F00E         	goto	l842
  4365  001D6C                     u2880:
  4366  001D6C  C016  F011         	movff	atol@a,??_atol
  4367  001D70  C017  F012         	movff	atol@a+1,??_atol+1
  4368  001D74  C018  F013         	movff	atol@a+2,??_atol+2
  4369  001D78  C019  F014         	movff	atol@a+3,??_atol+3
  4370  001D7C  1E11               	comf	??_atol^0,f,c
  4371  001D7E  1E12               	comf	(??_atol+1)^0,f,c
  4372  001D80  1E13               	comf	(??_atol+2)^0,f,c
  4373  001D82  1E14               	comf	(??_atol+3)^0,f,c
  4374  001D84  2A11               	incf	??_atol^0,f,c
  4375  001D86  0E00               	movlw	0
  4376  001D88  2212               	addwfc	(??_atol+1)^0,f,c
  4377  001D8A  2213               	addwfc	(??_atol+2)^0,f,c
  4378  001D8C  2214               	addwfc	(??_atol+3)^0,f,c
  4379  001D8E  C011  F00D         	movff	??_atol,?_atol
  4380  001D92  C012  F00E         	movff	??_atol+1,?_atol+1
  4381  001D96  C013  F00F         	movff	??_atol+2,?_atol+2
  4382  001D9A  C014  F010         	movff	??_atol+3,?_atol+3
  4383  001D9E  EFD9  F00E         	goto	l843
  4384  001DA2                     l842:
  4385  001DA2  C016  F00D         	movff	atol@a,?_atol
  4386  001DA6  C017  F00E         	movff	atol@a+1,?_atol+1
  4387  001DAA  C018  F00F         	movff	atol@a+2,?_atol+2
  4388  001DAE  C019  F010         	movff	atol@a+3,?_atol+3
  4389  001DB2                     l843:
  4390  001DB2  0012               	return		;funcret
  4391  001DB4                     __end_of_atol:
  4392                           	opt callstack 0
  4393                           
  4394 ;; *************** function _isdigit *****************
  4395 ;; Defined at:
  4396 ;;		line 8 in file "C:\Program Files (x86)\Microchip\xc8\v2.10\pic\sources\c90\common\isdigit.c"
  4397 ;; Parameters:    Size  Location     Type
  4398 ;;  c               1    wreg     unsigned char 
  4399 ;; Auto vars:     Size  Location     Type
  4400 ;;  c               1    2[COMRAM] unsigned char 
  4401 ;; Return value:  Size  Location     Type
  4402 ;;		None               void
  4403 ;; Registers used:
  4404 ;;		wreg, status,2, status,0
  4405 ;; Tracked objects:
  4406 ;;		On entry : 0/0
  4407 ;;		On exit  : 0/0
  4408 ;;		Unchanged: 0/0
  4409 ;; Data sizes:     COMRAM   BANK0   BANK1   BANK2   BANK3   BANK4   BANK5   BANK6   BANK7
  4410 ;;      Params:         0       0       0       0       0       0       0       0       0
  4411 ;;      Locals:         2       0       0       0       0       0       0       0       0
  4412 ;;      Temps:          1       0       0       0       0       0       0       0       0
  4413 ;;      Totals:         3       0       0       0       0       0       0       0       0
  4414 ;;Total ram usage:        3 bytes
  4415 ;; Hardware stack levels used:    1
  4416 ;; This function calls:
  4417 ;;		Nothing
  4418 ;; This function is called by:
  4419 ;;		_atol
  4420 ;; This function uses a non-reentrant model
  4421 ;;
  4422                           
  4423                           	psect	text18
  4424  0026AE                     __ptext18:
  4425                           	opt callstack 0
  4426  0026AE                     _isdigit:
  4427                           	opt callstack 29
  4428                           
  4429                           ;incstack = 0
  4430                           ;isdigit@c stored from wreg
  4431  0026AE  6E03               	movwf	isdigit@c^0,c
  4432  0026B0  0E00               	movlw	0
  4433  0026B2  6E02               	movwf	_isdigit$609^0,c
  4434  0026B4  0E3A               	movlw	58
  4435  0026B6  6003               	cpfslt	isdigit@c^0,c
  4436  0026B8  EF60  F013         	goto	u2621
  4437  0026BC  EF62  F013         	goto	u2620
  4438  0026C0                     u2621:
  4439  0026C0  EF6C  F013         	goto	l2704
  4440  0026C4                     u2620:
  4441  0026C4  0E2F               	movlw	47
  4442  0026C6  6403               	cpfsgt	isdigit@c^0,c
  4443  0026C8  EF68  F013         	goto	u2631
  4444  0026CC  EF6A  F013         	goto	u2630
  4445  0026D0                     u2631:
  4446  0026D0  EF6C  F013         	goto	l2704
  4447  0026D4                     u2630:
  4448  0026D4  0E01               	movlw	1
  4449  0026D6  6E02               	movwf	_isdigit$609^0,c
  4450  0026D8                     l2704:
  4451  0026D8  C002  F001         	movff	_isdigit$609,??_isdigit
  4452  0026DC  3001               	rrcf	??_isdigit^0,w,c
  4453  0026DE  0012               	return		;funcret
  4454  0026E0                     __end_of_isdigit:
  4455                           	opt callstack 0
  4456                           
  4457 ;; *************** function ___lmul *****************
  4458 ;; Defined at:
  4459 ;;		line 15 in file "C:\Program Files (x86)\Microchip\xc8\v2.10\pic\sources\c90\common\Umul32.c"
  4460 ;; Parameters:    Size  Location     Type
  4461 ;;  multiplier      4    0[COMRAM] unsigned long 
  4462 ;;  multiplicand    4    4[COMRAM] unsigned long 
  4463 ;; Auto vars:     Size  Location     Type
  4464 ;;  product         4    8[COMRAM] unsigned long 
  4465 ;; Return value:  Size  Location     Type
  4466 ;;                  4    0[COMRAM] unsigned long 
  4467 ;; Registers used:
  4468 ;;		wreg, status,2, status,0
  4469 ;; Tracked objects:
  4470 ;;		On entry : 0/0
  4471 ;;		On exit  : 0/0
  4472 ;;		Unchanged: 0/0
  4473 ;; Data sizes:     COMRAM   BANK0   BANK1   BANK2   BANK3   BANK4   BANK5   BANK6   BANK7
  4474 ;;      Params:         8       0       0       0       0       0       0       0       0
  4475 ;;      Locals:         4       0       0       0       0       0       0       0       0
  4476 ;;      Temps:          0       0       0       0       0       0       0       0       0
  4477 ;;      Totals:        12       0       0       0       0       0       0       0       0
  4478 ;;Total ram usage:       12 bytes
  4479 ;; Hardware stack levels used:    1
  4480 ;; This function calls:
  4481 ;;		Nothing
  4482 ;; This function is called by:
  4483 ;;		_main
  4484 ;;		_atol
  4485 ;; This function uses a non-reentrant model
  4486 ;;
  4487                           
  4488                           	psect	text19
  4489  00234A                     __ptext19:
  4490                           	opt callstack 0
  4491  00234A                     ___lmul:
  4492                           	opt callstack 29
  4493  00234A  0E00               	movlw	0
  4494  00234C  6E09               	movwf	___lmul@product^0,c
  4495  00234E  0E00               	movlw	0
  4496  002350  6E0A               	movwf	(___lmul@product+1)^0,c
  4497  002352  0E00               	movlw	0
  4498  002354  6E0B               	movwf	(___lmul@product+2)^0,c
  4499  002356  0E00               	movlw	0
  4500  002358  6E0C               	movwf	(___lmul@product+3)^0,c
  4501  00235A                     l2462:
  4502  00235A  A001               	btfss	___lmul@multiplier^0,0,c
  4503  00235C  EFB2  F011         	goto	u2241
  4504  002360  EFB4  F011         	goto	u2240
  4505  002364                     u2241:
  4506  002364  EFBC  F011         	goto	l2466
  4507  002368                     u2240:
  4508  002368  5005               	movf	___lmul@multiplicand^0,w,c
  4509  00236A  2609               	addwf	___lmul@product^0,f,c
  4510  00236C  5006               	movf	(___lmul@multiplicand+1)^0,w,c
  4511  00236E  220A               	addwfc	(___lmul@product+1)^0,f,c
  4512  002370  5007               	movf	(___lmul@multiplicand+2)^0,w,c
  4513  002372  220B               	addwfc	(___lmul@product+2)^0,f,c
  4514  002374  5008               	movf	(___lmul@multiplicand+3)^0,w,c
  4515  002376  220C               	addwfc	(___lmul@product+3)^0,f,c
  4516  002378                     l2466:
  4517  002378  90D8               	bcf	status,0,c
  4518  00237A  3605               	rlcf	___lmul@multiplicand^0,f,c
  4519  00237C  3606               	rlcf	(___lmul@multiplicand+1)^0,f,c
  4520  00237E  3607               	rlcf	(___lmul@multiplicand+2)^0,f,c
  4521  002380  3608               	rlcf	(___lmul@multiplicand+3)^0,f,c
  4522  002382  90D8               	bcf	status,0,c
  4523  002384  3204               	rrcf	(___lmul@multiplier+3)^0,f,c
  4524  002386  3203               	rrcf	(___lmul@multiplier+2)^0,f,c
  4525  002388  3202               	rrcf	(___lmul@multiplier+1)^0,f,c
  4526  00238A  3201               	rrcf	___lmul@multiplier^0,f,c
  4527  00238C  5001               	movf	___lmul@multiplier^0,w,c
  4528  00238E  1002               	iorwf	(___lmul@multiplier+1)^0,w,c
  4529  002390  1003               	iorwf	(___lmul@multiplier+2)^0,w,c
  4530  002392  1004               	iorwf	(___lmul@multiplier+3)^0,w,c
  4531  002394  A4D8               	btfss	status,2,c
  4532  002396  EFCF  F011         	goto	u2251
  4533  00239A  EFD1  F011         	goto	u2250
  4534  00239E                     u2251:
  4535  00239E  EFAD  F011         	goto	l2462
  4536  0023A2                     u2250:
  4537  0023A2  C009  F001         	movff	___lmul@product,?___lmul
  4538  0023A6  C00A  F002         	movff	___lmul@product+1,?___lmul+1
  4539  0023AA  C00B  F003         	movff	___lmul@product+2,?___lmul+2
  4540  0023AE  C00C  F004         	movff	___lmul@product+3,?___lmul+3
  4541  0023B2  0012               	return		;funcret
  4542  0023B4                     __end_of___lmul:
  4543                           	opt callstack 0
  4544                           
  4545 ;; *************** function ___fldiv *****************
  4546 ;; Defined at:
  4547 ;;		line 11 in file "C:\Program Files (x86)\Microchip\xc8\v2.10\pic\sources\c90\common\sprcdiv.c"
  4548 ;; Parameters:    Size  Location     Type
  4549 ;;  b               4   24[COMRAM] unsigned long 
  4550 ;;  a               4   28[COMRAM] unsigned long 
  4551 ;; Auto vars:     Size  Location     Type
  4552 ;;  grs             4   43[COMRAM] unsigned long 
  4553 ;;  rem             4   36[COMRAM] unsigned long 
  4554 ;;  new_exp         2   41[COMRAM] int 
  4555 ;;  aexp            1   48[COMRAM] unsigned char 
  4556 ;;  bexp            1   47[COMRAM] unsigned char 
  4557 ;;  sign            1   40[COMRAM] unsigned char 
  4558 ;; Return value:  Size  Location     Type
  4559 ;;                  4   24[COMRAM] unsigned char 
  4560 ;; Registers used:
  4561 ;;		wreg, status,2, status,0
  4562 ;; Tracked objects:
  4563 ;;		On entry : 0/0
  4564 ;;		On exit  : 0/0
  4565 ;;		Unchanged: 0/0
  4566 ;; Data sizes:     COMRAM   BANK0   BANK1   BANK2   BANK3   BANK4   BANK5   BANK6   BANK7
  4567 ;;      Params:         8       0       0       0       0       0       0       0       0
  4568 ;;      Locals:        13       0       0       0       0       0       0       0       0
  4569 ;;      Temps:          4       0       0       0       0       0       0       0       0
  4570 ;;      Totals:        25       0       0       0       0       0       0       0       0
  4571 ;;Total ram usage:       25 bytes
  4572 ;; Hardware stack levels used:    1
  4573 ;; This function calls:
  4574 ;;		Nothing
  4575 ;; This function is called by:
  4576 ;;		_main
  4577 ;; This function uses a non-reentrant model
  4578 ;;
  4579                           
  4580                           	psect	text20
  4581  0014BE                     __ptext20:
  4582                           	opt callstack 0
  4583  0014BE                     ___fldiv:
  4584                           	opt callstack 30
  4585  0014BE  501C               	movf	(___fldiv@b+3)^0,w,c
  4586  0014C0  0B80               	andlw	128
  4587  0014C2  6E29               	movwf	___fldiv@sign^0,c
  4588  0014C4  501C               	movf	(___fldiv@b+3)^0,w,c
  4589  0014C6  241C               	addwf	(___fldiv@b+3)^0,w,c
  4590  0014C8  6E30               	movwf	___fldiv@bexp^0,c
  4591  0014CA  AE1B               	btfss	(___fldiv@b+2)^0,7,c
  4592  0014CC  EF6A  F00A         	goto	u2911
  4593  0014D0  EF6C  F00A         	goto	u2910
  4594  0014D4                     u2911:
  4595  0014D4  EF6D  F00A         	goto	l2952
  4596  0014D8                     u2910:
  4597  0014D8  8030               	bsf	___fldiv@bexp^0,0,c
  4598  0014DA                     l2952:
  4599  0014DA  5030               	movf	___fldiv@bexp^0,w,c
  4600  0014DC  B4D8               	btfsc	status,2,c
  4601  0014DE  EF73  F00A         	goto	u2921
  4602  0014E2  EF75  F00A         	goto	u2920
  4603  0014E6                     u2921:
  4604  0014E6  EF8A  F00A         	goto	l2962
  4605  0014EA                     u2920:
  4606  0014EA  2830               	incf	___fldiv@bexp^0,w,c
  4607  0014EC  A4D8               	btfss	status,2,c
  4608  0014EE  EF7B  F00A         	goto	u2931
  4609  0014F2  EF7D  F00A         	goto	u2930
  4610  0014F6                     u2931:
  4611  0014F6  EF85  F00A         	goto	l2958
  4612  0014FA                     u2930:
  4613  0014FA  0E00               	movlw	0
  4614  0014FC  6E19               	movwf	___fldiv@b^0,c
  4615  0014FE  0E00               	movlw	0
  4616  001500  6E1A               	movwf	(___fldiv@b+1)^0,c
  4617  001502  0E00               	movlw	0
  4618  001504  6E1B               	movwf	(___fldiv@b+2)^0,c
  4619  001506  0E00               	movlw	0
  4620  001508  6E1C               	movwf	(___fldiv@b+3)^0,c
  4621  00150A                     l2958:
  4622  00150A  8E1B               	bsf	(___fldiv@b+2)^0,7,c
  4623  00150C  0E00               	movlw	0
  4624  00150E  6E1C               	movwf	(___fldiv@b+3)^0,c
  4625  001510  EF92  F00A         	goto	l2964
  4626  001514                     l2962:
  4627  001514  0E00               	movlw	0
  4628  001516  6E19               	movwf	___fldiv@b^0,c
  4629  001518  0E00               	movlw	0
  4630  00151A  6E1A               	movwf	(___fldiv@b+1)^0,c
  4631  00151C  0E00               	movlw	0
  4632  00151E  6E1B               	movwf	(___fldiv@b+2)^0,c
  4633  001520  0E00               	movlw	0
  4634  001522  6E1C               	movwf	(___fldiv@b+3)^0,c
  4635  001524                     l2964:
  4636  001524  5020               	movf	(___fldiv@a+3)^0,w,c
  4637  001526  0B80               	andlw	128
  4638  001528  1A29               	xorwf	___fldiv@sign^0,f,c
  4639  00152A  5020               	movf	(___fldiv@a+3)^0,w,c
  4640  00152C  2420               	addwf	(___fldiv@a+3)^0,w,c
  4641  00152E  6E31               	movwf	___fldiv@aexp^0,c
  4642  001530  AE1F               	btfss	(___fldiv@a+2)^0,7,c
  4643  001532  EF9D  F00A         	goto	u2941
  4644  001536  EF9F  F00A         	goto	u2940
  4645  00153A                     u2941:
  4646  00153A  EFA0  F00A         	goto	l2972
  4647  00153E                     u2940:
  4648  00153E  8031               	bsf	___fldiv@aexp^0,0,c
  4649  001540                     l2972:
  4650  001540  5031               	movf	___fldiv@aexp^0,w,c
  4651  001542  B4D8               	btfsc	status,2,c
  4652  001544  EFA6  F00A         	goto	u2951
  4653  001548  EFA8  F00A         	goto	u2950
  4654  00154C                     u2951:
  4655  00154C  EFBD  F00A         	goto	l2982
  4656  001550                     u2950:
  4657  001550  2831               	incf	___fldiv@aexp^0,w,c
  4658  001552  A4D8               	btfss	status,2,c
  4659  001554  EFAE  F00A         	goto	u2961
  4660  001558  EFB0  F00A         	goto	u2960
  4661  00155C                     u2961:
  4662  00155C  EFB8  F00A         	goto	l2978
  4663  001560                     u2960:
  4664  001560  0E00               	movlw	0
  4665  001562  6E1D               	movwf	___fldiv@a^0,c
  4666  001564  0E00               	movlw	0
  4667  001566  6E1E               	movwf	(___fldiv@a+1)^0,c
  4668  001568  0E00               	movlw	0
  4669  00156A  6E1F               	movwf	(___fldiv@a+2)^0,c
  4670  00156C  0E00               	movlw	0
  4671  00156E  6E20               	movwf	(___fldiv@a+3)^0,c
  4672  001570                     l2978:
  4673  001570  8E1F               	bsf	(___fldiv@a+2)^0,7,c
  4674  001572  0E00               	movlw	0
  4675  001574  6E20               	movwf	(___fldiv@a+3)^0,c
  4676  001576  EFC5  F00A         	goto	l2984
  4677  00157A                     l2982:
  4678  00157A  0E00               	movlw	0
  4679  00157C  6E1D               	movwf	___fldiv@a^0,c
  4680  00157E  0E00               	movlw	0
  4681  001580  6E1E               	movwf	(___fldiv@a+1)^0,c
  4682  001582  0E00               	movlw	0
  4683  001584  6E1F               	movwf	(___fldiv@a+2)^0,c
  4684  001586  0E00               	movlw	0
  4685  001588  6E20               	movwf	(___fldiv@a+3)^0,c
  4686  00158A                     l2984:
  4687  00158A  501D               	movf	___fldiv@a^0,w,c
  4688  00158C  101E               	iorwf	(___fldiv@a+1)^0,w,c
  4689  00158E  101F               	iorwf	(___fldiv@a+2)^0,w,c
  4690  001590  1020               	iorwf	(___fldiv@a+3)^0,w,c
  4691  001592  A4D8               	btfss	status,2,c
  4692  001594  EFCE  F00A         	goto	u2971
  4693  001598  EFD0  F00A         	goto	u2970
  4694  00159C                     u2971:
  4695  00159C  EFE8  F00A         	goto	l2996
  4696  0015A0                     u2970:
  4697  0015A0  0E00               	movlw	0
  4698  0015A2  6E19               	movwf	___fldiv@b^0,c
  4699  0015A4  0E00               	movlw	0
  4700  0015A6  6E1A               	movwf	(___fldiv@b+1)^0,c
  4701  0015A8  0E00               	movlw	0
  4702  0015AA  6E1B               	movwf	(___fldiv@b+2)^0,c
  4703  0015AC  0E00               	movlw	0
  4704  0015AE  6E1C               	movwf	(___fldiv@b+3)^0,c
  4705  0015B0  0E80               	movlw	128
  4706  0015B2  121B               	iorwf	(___fldiv@b+2)^0,f,c
  4707  0015B4  0E7F               	movlw	127
  4708  0015B6  121C               	iorwf	(___fldiv@b+3)^0,f,c
  4709  0015B8                     l2990:
  4710  0015B8  5029               	movf	___fldiv@sign^0,w,c
  4711  0015BA  121C               	iorwf	(___fldiv@b+3)^0,f,c
  4712  0015BC  C019  F019         	movff	___fldiv@b,?___fldiv
  4713  0015C0  C01A  F01A         	movff	___fldiv@b+1,?___fldiv+1
  4714  0015C4  C01B  F01B         	movff	___fldiv@b+2,?___fldiv+2
  4715  0015C8  C01C  F01C         	movff	___fldiv@b+3,?___fldiv+3
  4716  0015CC  EF2B  F00C         	goto	l740
  4717  0015D0                     l2996:
  4718  0015D0  5030               	movf	___fldiv@bexp^0,w,c
  4719  0015D2  A4D8               	btfss	status,2,c
  4720  0015D4  EFEE  F00A         	goto	u2981
  4721  0015D8  EFF0  F00A         	goto	u2980
  4722  0015DC                     u2981:
  4723  0015DC  EFFA  F00A         	goto	l3004
  4724  0015E0                     u2980:
  4725  0015E0  0E00               	movlw	0
  4726  0015E2  6E19               	movwf	?___fldiv^0,c
  4727  0015E4  0E00               	movlw	0
  4728  0015E6  6E1A               	movwf	(?___fldiv+1)^0,c
  4729  0015E8  0E00               	movlw	0
  4730  0015EA  6E1B               	movwf	(?___fldiv+2)^0,c
  4731  0015EC  0E00               	movlw	0
  4732  0015EE  6E1C               	movwf	(?___fldiv+3)^0,c
  4733  0015F0  EF2B  F00C         	goto	l740
  4734  0015F4                     l3004:
  4735  0015F4  5031               	movf	___fldiv@aexp^0,w,c
  4736  0015F6  C030  F021         	movff	___fldiv@bexp,??___fldiv
  4737  0015FA  6A22               	clrf	(??___fldiv+1)^0,c
  4738  0015FC  5E21               	subwf	??___fldiv^0,f,c
  4739  0015FE  0E00               	movlw	0
  4740  001600  5A22               	subwfb	(??___fldiv+1)^0,f,c
  4741  001602  0E7F               	movlw	127
  4742  001604  2421               	addwf	??___fldiv^0,w,c
  4743  001606  6E2A               	movwf	___fldiv@new_exp^0,c
  4744  001608  0E00               	movlw	0
  4745  00160A  2022               	addwfc	(??___fldiv+1)^0,w,c
  4746  00160C  6E2B               	movwf	(___fldiv@new_exp+1)^0,c
  4747  00160E  C019  F025         	movff	___fldiv@b,___fldiv@rem
  4748  001612  C01A  F026         	movff	___fldiv@b+1,___fldiv@rem+1
  4749  001616  C01B  F027         	movff	___fldiv@b+2,___fldiv@rem+2
  4750  00161A  C01C  F028         	movff	___fldiv@b+3,___fldiv@rem+3
  4751  00161E  0E00               	movlw	0
  4752  001620  6E19               	movwf	___fldiv@b^0,c
  4753  001622  0E00               	movlw	0
  4754  001624  6E1A               	movwf	(___fldiv@b+1)^0,c
  4755  001626  0E00               	movlw	0
  4756  001628  6E1B               	movwf	(___fldiv@b+2)^0,c
  4757  00162A  0E00               	movlw	0
  4758  00162C  6E1C               	movwf	(___fldiv@b+3)^0,c
  4759  00162E  0E00               	movlw	0
  4760  001630  6E2C               	movwf	___fldiv@grs^0,c
  4761  001632  0E00               	movlw	0
  4762  001634  6E2D               	movwf	(___fldiv@grs+1)^0,c
  4763  001636  0E00               	movlw	0
  4764  001638  6E2E               	movwf	(___fldiv@grs+2)^0,c
  4765  00163A  0E00               	movlw	0
  4766  00163C  6E2F               	movwf	(___fldiv@grs+3)^0,c
  4767  00163E  0E00               	movlw	0
  4768  001640  6E31               	movwf	___fldiv@aexp^0,c
  4769  001642  EF5B  F00B         	goto	l742
  4770  001646                     l3014:
  4771  001646  5031               	movf	___fldiv@aexp^0,w,c
  4772  001648  B4D8               	btfsc	status,2,c
  4773  00164A  EF29  F00B         	goto	u2991
  4774  00164E  EF2B  F00B         	goto	u2990
  4775  001652                     u2991:
  4776  001652  EF42  F00B         	goto	l3022
  4777  001656                     u2990:
  4778  001656  90D8               	bcf	status,0,c
  4779  001658  3625               	rlcf	___fldiv@rem^0,f,c
  4780  00165A  3626               	rlcf	(___fldiv@rem+1)^0,f,c
  4781  00165C  3627               	rlcf	(___fldiv@rem+2)^0,f,c
  4782  00165E  3628               	rlcf	(___fldiv@rem+3)^0,f,c
  4783  001660  90D8               	bcf	status,0,c
  4784  001662  3619               	rlcf	___fldiv@b^0,f,c
  4785  001664  361A               	rlcf	(___fldiv@b+1)^0,f,c
  4786  001666  361B               	rlcf	(___fldiv@b+2)^0,f,c
  4787  001668  361C               	rlcf	(___fldiv@b+3)^0,f,c
  4788  00166A  AE2F               	btfss	(___fldiv@grs+3)^0,7,c
  4789  00166C  EF3A  F00B         	goto	u3001
  4790  001670  EF3C  F00B         	goto	u3000
  4791  001674                     u3001:
  4792  001674  EF3D  F00B         	goto	l745
  4793  001678                     u3000:
  4794  001678  8019               	bsf	___fldiv@b^0,0,c
  4795  00167A                     l745:
  4796  00167A  90D8               	bcf	status,0,c
  4797  00167C  362C               	rlcf	___fldiv@grs^0,f,c
  4798  00167E  362D               	rlcf	(___fldiv@grs+1)^0,f,c
  4799  001680  362E               	rlcf	(___fldiv@grs+2)^0,f,c
  4800  001682  362F               	rlcf	(___fldiv@grs+3)^0,f,c
  4801  001684                     l3022:
  4802  001684  501D               	movf	___fldiv@a^0,w,c
  4803  001686  5C25               	subwf	___fldiv@rem^0,w,c
  4804  001688  501E               	movf	(___fldiv@a+1)^0,w,c
  4805  00168A  5826               	subwfb	(___fldiv@rem+1)^0,w,c
  4806  00168C  501F               	movf	(___fldiv@a+2)^0,w,c
  4807  00168E  5827               	subwfb	(___fldiv@rem+2)^0,w,c
  4808  001690  5020               	movf	(___fldiv@a+3)^0,w,c
  4809  001692  5828               	subwfb	(___fldiv@rem+3)^0,w,c
  4810  001694  A0D8               	btfss	status,0,c
  4811  001696  EF4F  F00B         	goto	u3011
  4812  00169A  EF51  F00B         	goto	u3010
  4813  00169E                     u3011:
  4814  00169E  EF5A  F00B         	goto	l3028
  4815  0016A2                     u3010:
  4816  0016A2  8C2F               	bsf	(___fldiv@grs+3)^0,6,c
  4817  0016A4  501D               	movf	___fldiv@a^0,w,c
  4818  0016A6  5E25               	subwf	___fldiv@rem^0,f,c
  4819  0016A8  501E               	movf	(___fldiv@a+1)^0,w,c
  4820  0016AA  5A26               	subwfb	(___fldiv@rem+1)^0,f,c
  4821  0016AC  501F               	movf	(___fldiv@a+2)^0,w,c
  4822  0016AE  5A27               	subwfb	(___fldiv@rem+2)^0,f,c
  4823  0016B0  5020               	movf	(___fldiv@a+3)^0,w,c
  4824  0016B2  5A28               	subwfb	(___fldiv@rem+3)^0,f,c
  4825  0016B4                     l3028:
  4826  0016B4  2A31               	incf	___fldiv@aexp^0,f,c
  4827  0016B6                     l742:
  4828  0016B6  0E19               	movlw	25
  4829  0016B8  6431               	cpfsgt	___fldiv@aexp^0,c
  4830  0016BA  EF61  F00B         	goto	u3021
  4831  0016BE  EF63  F00B         	goto	u3020
  4832  0016C2                     u3021:
  4833  0016C2  EF23  F00B         	goto	l3014
  4834  0016C6                     u3020:
  4835  0016C6  5025               	movf	___fldiv@rem^0,w,c
  4836  0016C8  1026               	iorwf	(___fldiv@rem+1)^0,w,c
  4837  0016CA  1027               	iorwf	(___fldiv@rem+2)^0,w,c
  4838  0016CC  1028               	iorwf	(___fldiv@rem+3)^0,w,c
  4839  0016CE  B4D8               	btfsc	status,2,c
  4840  0016D0  EF6C  F00B         	goto	u3031
  4841  0016D4  EF6E  F00B         	goto	u3030
  4842  0016D8                     u3031:
  4843  0016D8  EF86  F00B         	goto	l3040
  4844  0016DC                     u3030:
  4845  0016DC  802C               	bsf	___fldiv@grs^0,0,c
  4846  0016DE  EF86  F00B         	goto	l3040
  4847  0016E2                     l3034:
  4848  0016E2  90D8               	bcf	status,0,c
  4849  0016E4  3619               	rlcf	___fldiv@b^0,f,c
  4850  0016E6  361A               	rlcf	(___fldiv@b+1)^0,f,c
  4851  0016E8  361B               	rlcf	(___fldiv@b+2)^0,f,c
  4852  0016EA  361C               	rlcf	(___fldiv@b+3)^0,f,c
  4853  0016EC  AE2F               	btfss	(___fldiv@grs+3)^0,7,c
  4854  0016EE  EF7B  F00B         	goto	u3041
  4855  0016F2  EF7D  F00B         	goto	u3040
  4856  0016F6                     u3041:
  4857  0016F6  EF7E  F00B         	goto	l751
  4858  0016FA                     u3040:
  4859  0016FA  8019               	bsf	___fldiv@b^0,0,c
  4860  0016FC                     l751:
  4861  0016FC  90D8               	bcf	status,0,c
  4862  0016FE  362C               	rlcf	___fldiv@grs^0,f,c
  4863  001700  362D               	rlcf	(___fldiv@grs+1)^0,f,c
  4864  001702  362E               	rlcf	(___fldiv@grs+2)^0,f,c
  4865  001704  362F               	rlcf	(___fldiv@grs+3)^0,f,c
  4866  001706  062A               	decf	___fldiv@new_exp^0,f,c
  4867  001708  A0D8               	btfss	status,0,c
  4868  00170A  062B               	decf	(___fldiv@new_exp+1)^0,f,c
  4869  00170C                     l3040:
  4870  00170C  AE1B               	btfss	(___fldiv@b+2)^0,7,c
  4871  00170E  EF8B  F00B         	goto	u3051
  4872  001712  EF8D  F00B         	goto	u3050
  4873  001716                     u3051:
  4874  001716  EF71  F00B         	goto	l3034
  4875  00171A                     u3050:
  4876  00171A  0E00               	movlw	0
  4877  00171C  6E31               	movwf	___fldiv@aexp^0,c
  4878  00171E  AE2F               	btfss	(___fldiv@grs+3)^0,7,c
  4879  001720  EF94  F00B         	goto	u3061
  4880  001724  EF96  F00B         	goto	u3060
  4881  001728                     u3061:
  4882  001728  EFBA  F00B         	goto	l753
  4883  00172C                     u3060:
  4884  00172C  0EFF               	movlw	255
  4885  00172E  142C               	andwf	___fldiv@grs^0,w,c
  4886  001730  6E21               	movwf	??___fldiv^0,c
  4887  001732  0EFF               	movlw	255
  4888  001734  142D               	andwf	(___fldiv@grs+1)^0,w,c
  4889  001736  6E22               	movwf	(??___fldiv+1)^0,c
  4890  001738  0EFF               	movlw	255
  4891  00173A  142E               	andwf	(___fldiv@grs+2)^0,w,c
  4892  00173C  6E23               	movwf	(??___fldiv+2)^0,c
  4893  00173E  0E7F               	movlw	127
  4894  001740  142F               	andwf	(___fldiv@grs+3)^0,w,c
  4895  001742  6E24               	movwf	(??___fldiv+3)^0,c
  4896  001744  5021               	movf	??___fldiv^0,w,c
  4897  001746  1022               	iorwf	(??___fldiv+1)^0,w,c
  4898  001748  1023               	iorwf	(??___fldiv+2)^0,w,c
  4899  00174A  1024               	iorwf	(??___fldiv+3)^0,w,c
  4900  00174C  B4D8               	btfsc	status,2,c
  4901  00174E  EFAB  F00B         	goto	u3071
  4902  001752  EFAD  F00B         	goto	u3070
  4903  001756                     u3071:
  4904  001756  EFB1  F00B         	goto	l754
  4905  00175A                     u3070:
  4906  00175A                     l3048:
  4907  00175A  0E01               	movlw	1
  4908  00175C  6E31               	movwf	___fldiv@aexp^0,c
  4909  00175E  EFBA  F00B         	goto	l753
  4910  001762                     l754:
  4911  001762  A019               	btfss	___fldiv@b^0,0,c
  4912  001764  EFB6  F00B         	goto	u3081
  4913  001768  EFB8  F00B         	goto	u3080
  4914  00176C                     u3081:
  4915  00176C  EFBA  F00B         	goto	l753
  4916  001770                     u3080:
  4917  001770  EFAD  F00B         	goto	l3048
  4918  001774                     l753:
  4919  001774  5031               	movf	___fldiv@aexp^0,w,c
  4920  001776  B4D8               	btfsc	status,2,c
  4921  001778  EFC0  F00B         	goto	u3091
  4922  00177C  EFC2  F00B         	goto	u3090
  4923  001780                     u3091:
  4924  001780  EFE6  F00B         	goto	l3060
  4925  001784                     u3090:
  4926  001784  0E01               	movlw	1
  4927  001786  2619               	addwf	___fldiv@b^0,f,c
  4928  001788  0E00               	movlw	0
  4929  00178A  221A               	addwfc	(___fldiv@b+1)^0,f,c
  4930  00178C  221B               	addwfc	(___fldiv@b+2)^0,f,c
  4931  00178E  221C               	addwfc	(___fldiv@b+3)^0,f,c
  4932  001790  A01C               	btfss	(___fldiv@b+3)^0,0,c
  4933  001792  EFCD  F00B         	goto	u3101
  4934  001796  EFCF  F00B         	goto	u3100
  4935  00179A                     u3101:
  4936  00179A  EFE6  F00B         	goto	l3060
  4937  00179E                     u3100:
  4938  00179E  C019  F021         	movff	___fldiv@b,??___fldiv
  4939  0017A2  C01A  F022         	movff	___fldiv@b+1,??___fldiv+1
  4940  0017A6  C01B  F023         	movff	___fldiv@b+2,??___fldiv+2
  4941  0017AA  C01C  F024         	movff	___fldiv@b+3,??___fldiv+3
  4942  0017AE  3424               	rlcf	(??___fldiv+3)^0,w,c
  4943  0017B0  3224               	rrcf	(??___fldiv+3)^0,f,c
  4944  0017B2  3223               	rrcf	(??___fldiv+2)^0,f,c
  4945  0017B4  3222               	rrcf	(??___fldiv+1)^0,f,c
  4946  0017B6  3221               	rrcf	??___fldiv^0,f,c
  4947  0017B8  C021  F019         	movff	??___fldiv,___fldiv@b
  4948  0017BC  C022  F01A         	movff	??___fldiv+1,___fldiv@b+1
  4949  0017C0  C023  F01B         	movff	??___fldiv+2,___fldiv@b+2
  4950  0017C4  C024  F01C         	movff	??___fldiv+3,___fldiv@b+3
  4951  0017C8  4A2A               	infsnz	___fldiv@new_exp^0,f,c
  4952  0017CA  2A2B               	incf	(___fldiv@new_exp+1)^0,f,c
  4953  0017CC                     l3060:
  4954  0017CC  BE2B               	btfsc	(___fldiv@new_exp+1)^0,7,c
  4955  0017CE  EFF1  F00B         	goto	u3111
  4956  0017D2  502B               	movf	(___fldiv@new_exp+1)^0,w,c
  4957  0017D4  E108               	bnz	u3110
  4958  0017D6  282A               	incf	___fldiv@new_exp^0,w,c
  4959  0017D8  A0D8               	btfss	status,0,c
  4960  0017DA  EFF1  F00B         	goto	u3111
  4961  0017DE  EFF3  F00B         	goto	u3110
  4962  0017E2                     u3111:
  4963  0017E2  EFFE  F00B         	goto	l3064
  4964  0017E6                     u3110:
  4965  0017E6  0E00               	movlw	0
  4966  0017E8  6E2B               	movwf	(___fldiv@new_exp+1)^0,c
  4967  0017EA  682A               	setf	___fldiv@new_exp^0,c
  4968  0017EC  0E00               	movlw	0
  4969  0017EE  6E19               	movwf	___fldiv@b^0,c
  4970  0017F0  0E00               	movlw	0
  4971  0017F2  6E1A               	movwf	(___fldiv@b+1)^0,c
  4972  0017F4  0E00               	movlw	0
  4973  0017F6  6E1B               	movwf	(___fldiv@b+2)^0,c
  4974  0017F8  0E00               	movlw	0
  4975  0017FA  6E1C               	movwf	(___fldiv@b+3)^0,c
  4976  0017FC                     l3064:
  4977  0017FC  BE2B               	btfsc	(___fldiv@new_exp+1)^0,7,c
  4978  0017FE  EF0B  F00C         	goto	u3120
  4979  001802  502B               	movf	(___fldiv@new_exp+1)^0,w,c
  4980  001804  E106               	bnz	u3121
  4981  001806  042A               	decf	___fldiv@new_exp^0,w,c
  4982  001808  B0D8               	btfsc	status,0,c
  4983  00180A  EF09  F00C         	goto	u3121
  4984  00180E  EF0B  F00C         	goto	u3120
  4985  001812                     u3121:
  4986  001812  EF19  F00C         	goto	l3068
  4987  001816                     u3120:
  4988  001816  0E00               	movlw	0
  4989  001818  6E2B               	movwf	(___fldiv@new_exp+1)^0,c
  4990  00181A  0E00               	movlw	0
  4991  00181C  6E2A               	movwf	___fldiv@new_exp^0,c
  4992  00181E  0E00               	movlw	0
  4993  001820  6E19               	movwf	___fldiv@b^0,c
  4994  001822  0E00               	movlw	0
  4995  001824  6E1A               	movwf	(___fldiv@b+1)^0,c
  4996  001826  0E00               	movlw	0
  4997  001828  6E1B               	movwf	(___fldiv@b+2)^0,c
  4998  00182A  0E00               	movlw	0
  4999  00182C  6E1C               	movwf	(___fldiv@b+3)^0,c
  5000  00182E  0E00               	movlw	0
  5001  001830  6E29               	movwf	___fldiv@sign^0,c
  5002  001832                     l3068:
  5003  001832  C02A  F030         	movff	___fldiv@new_exp,___fldiv@bexp
  5004  001836  A030               	btfss	___fldiv@bexp^0,0,c
  5005  001838  EF20  F00C         	goto	u3131
  5006  00183C  EF22  F00C         	goto	u3130
  5007  001840                     u3131:
  5008  001840  EF25  F00C         	goto	l3074
  5009  001844                     u3130:
  5010  001844  8E1B               	bsf	(___fldiv@b+2)^0,7,c
  5011  001846  EF26  F00C         	goto	l3076
  5012  00184A                     l3074:
  5013  00184A  9E1B               	bcf	(___fldiv@b+2)^0,7,c
  5014  00184C                     l3076:
  5015  00184C  90D8               	bcf	status,0,c
  5016  00184E  3030               	rrcf	___fldiv@bexp^0,w,c
  5017  001850  6E1C               	movwf	(___fldiv@b+3)^0,c
  5018  001852  EFDC  F00A         	goto	l2990
  5019  001856                     l740:
  5020  001856  0012               	return		;funcret
  5021  001858                     __end_of___fldiv:
  5022                           	opt callstack 0
  5023                           
  5024 ;; *************** function _LCD_String_xy *****************
  5025 ;; Defined at:
  5026 ;;		line 59 in file "lcd.c"
  5027 ;; Parameters:    Size  Location     Type
  5028 ;;  row             1    wreg     unsigned char 
  5029 ;;  pos             1   10[COMRAM] unsigned char 
  5030 ;;  msg             2   11[COMRAM] PTR const unsigned char 
  5031 ;;		 -> STR_2(8), STR_1(12), 
  5032 ;; Auto vars:     Size  Location     Type
  5033 ;;  row             1   13[COMRAM] unsigned char 
  5034 ;;  location        1   14[COMRAM] unsigned char 
  5035 ;; Return value:  Size  Location     Type
  5036 ;;                  1    wreg      void 
  5037 ;; Registers used:
  5038 ;;		wreg, fsr2l, fsr2h, status,2, status,0, tblptrl, tblptrh, tblptru, cstack
  5039 ;; Tracked objects:
  5040 ;;		On entry : 0/0
  5041 ;;		On exit  : 0/0
  5042 ;;		Unchanged: 0/0
  5043 ;; Data sizes:     COMRAM   BANK0   BANK1   BANK2   BANK3   BANK4   BANK5   BANK6   BANK7
  5044 ;;      Params:         3       0       0       0       0       0       0       0       0
  5045 ;;      Locals:         2       0       0       0       0       0       0       0       0
  5046 ;;      Temps:          0       0       0       0       0       0       0       0       0
  5047 ;;      Totals:         5       0       0       0       0       0       0       0       0
  5048 ;;Total ram usage:        5 bytes
  5049 ;; Hardware stack levels used:    1
  5050 ;; Hardware stack levels required when called:    3
  5051 ;; This function calls:
  5052 ;;		_LCD_Command
  5053 ;;		_LCD_String
  5054 ;; This function is called by:
  5055 ;;		_main
  5056 ;; This function uses a non-reentrant model
  5057 ;;
  5058                           
  5059                           	psect	text21
  5060  002636                     __ptext21:
  5061                           	opt callstack 0
  5062  002636                     _LCD_String_xy:
  5063                           	opt callstack 27
  5064                           
  5065                           ;incstack = 0
  5066                           ;LCD_String_xy@row stored from wreg
  5067  002636  6E0E               	movwf	LCD_String_xy@row^0,c
  5068  002638                     
  5069                           ;lcd.c: 62: if(row<=1)
  5070  002638  0E02               	movlw	2
  5071  00263A  600E               	cpfslt	LCD_String_xy@row^0,c
  5072  00263C  EF22  F013         	goto	u2671
  5073  002640  EF24  F013         	goto	u2670
  5074  002644                     u2671:
  5075  002644  EF2D  F013         	goto	l2756
  5076  002648                     u2670:
  5077  002648                     
  5078                           ;lcd.c: 63: {;lcd.c: 64: location = (0x80) | ((pos) & 0x0f);
  5079  002648  500B               	movf	LCD_String_xy@pos^0,w,c
  5080  00264A  0B0F               	andlw	15
  5081  00264C  0980               	iorlw	128
  5082  00264E  6E0F               	movwf	LCD_String_xy@location^0,c
  5083  002650                     
  5084                           ;lcd.c: 65: LCD_Command(location);
  5085  002650  500F               	movf	LCD_String_xy@location^0,w,c
  5086  002652  EC8B  F012         	call	_LCD_Command
  5087                           
  5088                           ;lcd.c: 66: }
  5089  002656  EF34  F013         	goto	l2760
  5090  00265A                     l2756:
  5091                           
  5092                           ;lcd.c: 67: else;lcd.c: 68: {;lcd.c: 69: location = (0xC0) | ((pos) & 0x0f);
  5093  00265A  500B               	movf	LCD_String_xy@pos^0,w,c
  5094  00265C  0B0F               	andlw	15
  5095  00265E  09C0               	iorlw	192
  5096  002660  6E0F               	movwf	LCD_String_xy@location^0,c
  5097  002662                     
  5098                           ;lcd.c: 70: LCD_Command(location);
  5099  002662  500F               	movf	LCD_String_xy@location^0,w,c
  5100  002664  EC8B  F012         	call	_LCD_Command
  5101  002668                     l2760:
  5102                           
  5103                           ;lcd.c: 71: };lcd.c: 74: LCD_String(msg);
  5104  002668  C00C  F009         	movff	LCD_String_xy@msg,LCD_String@msg
  5105  00266C  C00D  F00A         	movff	LCD_String_xy@msg+1,LCD_String@msg+1
  5106  002670  EC0C  F012         	call	_LCD_String	;wreg free
  5107  002674  0012               	return		;funcret
  5108  002676                     __end_of_LCD_String_xy:
  5109                           	opt callstack 0
  5110                           
  5111 ;; *************** function _LCD_String *****************
  5112 ;; Defined at:
  5113 ;;		line 49 in file "lcd.c"
  5114 ;; Parameters:    Size  Location     Type
  5115 ;;  msg             2    8[COMRAM] PTR const unsigned char 
  5116 ;;		 -> display_float@output1(15), STR_4(2), display_float@output(15), STR_3(6), 
  5117 ;;		 -> main@result_output(10), STR_2(8), STR_1(12), 
  5118 ;; Auto vars:     Size  Location     Type
  5119 ;;		None
  5120 ;; Return value:  Size  Location     Type
  5121 ;;                  1    wreg      void 
  5122 ;; Registers used:
  5123 ;;		wreg, fsr2l, fsr2h, status,2, status,0, tblptrl, tblptrh, tblptru, cstack
  5124 ;; Tracked objects:
  5125 ;;		On entry : 0/0
  5126 ;;		On exit  : 0/0
  5127 ;;		Unchanged: 0/0
  5128 ;; Data sizes:     COMRAM   BANK0   BANK1   BANK2   BANK3   BANK4   BANK5   BANK6   BANK7
  5129 ;;      Params:         2       0       0       0       0       0       0       0       0
  5130 ;;      Locals:         0       0       0       0       0       0       0       0       0
  5131 ;;      Temps:          0       0       0       0       0       0       0       0       0
  5132 ;;      Totals:         2       0       0       0       0       0       0       0       0
  5133 ;;Total ram usage:        2 bytes
  5134 ;; Hardware stack levels used:    1
  5135 ;; Hardware stack levels required when called:    2
  5136 ;; This function calls:
  5137 ;;		_LCD_Char
  5138 ;; This function is called by:
  5139 ;;		_main
  5140 ;;		_display_float
  5141 ;;		_LCD_String_xy
  5142 ;; This function uses a non-reentrant model
  5143 ;;
  5144                           
  5145                           	psect	text22
  5146  002418                     __ptext22:
  5147                           	opt callstack 0
  5148  002418                     _LCD_String:
  5149                           	opt callstack 27
  5150  002418                     
  5151                           ;lcd.c: 51: while((*msg)!=0)
  5152  002418  EF22  F012         	goto	l2446
  5153  00241C                     l2442:
  5154                           
  5155                           ;lcd.c: 52: {;lcd.c: 53: LCD_Char(*msg);
  5156  00241C  C009  FFF6         	movff	LCD_String@msg,tblptrl
  5157  002420  C00A  FFF7         	movff	LCD_String@msg+1,tblptrh
  5158  002424  6AF8               	clrf	tblptru,c
  5159  002426  0E07               	movlw	(high __ramtop+-1)
  5160  002428  64F7               	cpfsgt	tblptrh,c
  5161  00242A  D003               	bra	u2207
  5162  00242C  0008               	tblrd		*
  5163  00242E  50F5               	movf	tablat,w,c
  5164  002430  D005               	bra	u2200
  5165  002432                     u2207:
  5166  002432  CFF6 FFD9          	movff	tblptrl,fsr2l
  5167  002436  CFF7 FFDA          	movff	tblptrh,fsr2h
  5168  00243A  50DF               	movf	indf2,w,c
  5169  00243C                     u2200:
  5170  00243C  EC65  F012         	call	_LCD_Char
  5171  002440                     
  5172                           ;lcd.c: 54: msg++;
  5173  002440  4A09               	infsnz	LCD_String@msg^0,f,c
  5174  002442  2A0A               	incf	(LCD_String@msg+1)^0,f,c
  5175  002444                     l2446:
  5176  002444  C009  FFF6         	movff	LCD_String@msg,tblptrl
  5177  002448  C00A  FFF7         	movff	LCD_String@msg+1,tblptrh
  5178  00244C  6AF8               	clrf	tblptru,c
  5179  00244E  0E07               	movlw	(high __ramtop+-1)
  5180  002450  64F7               	cpfsgt	tblptrh,c
  5181  002452  D003               	bra	u2217
  5182  002454  0008               	tblrd		*
  5183  002456  50F5               	movf	tablat,w,c
  5184  002458  D005               	bra	u2210
  5185  00245A                     u2217:
  5186  00245A  CFF6 FFD9          	movff	tblptrl,fsr2l
  5187  00245E  CFF7 FFDA          	movff	tblptrh,fsr2h
  5188  002462  50DF               	movf	indf2,w,c
  5189  002464                     u2210:
  5190  002464  0900               	iorlw	0
  5191  002466  A4D8               	btfss	status,2,c
  5192  002468  EF38  F012         	goto	u2221
  5193  00246C  EF3A  F012         	goto	u2220
  5194  002470                     u2221:
  5195  002470  EF0E  F012         	goto	l2442
  5196  002474                     u2220:
  5197  002474  0012               	return		;funcret
  5198  002476                     __end_of_LCD_String:
  5199                           	opt callstack 0
  5200                           
  5201 ;; *************** function _LCD_Char *****************
  5202 ;; Defined at:
  5203 ;;		line 35 in file "lcd.c"
  5204 ;; Parameters:    Size  Location     Type
  5205 ;;  dat             1    wreg     unsigned char 
  5206 ;; Auto vars:     Size  Location     Type
  5207 ;;  dat             1    7[COMRAM] unsigned char 
  5208 ;; Return value:  Size  Location     Type
  5209 ;;                  1    wreg      void 
  5210 ;; Registers used:
  5211 ;;		wreg, status,2, status,0, cstack
  5212 ;; Tracked objects:
  5213 ;;		On entry : 0/0
  5214 ;;		On exit  : 0/0
  5215 ;;		Unchanged: 0/0
  5216 ;; Data sizes:     COMRAM   BANK0   BANK1   BANK2   BANK3   BANK4   BANK5   BANK6   BANK7
  5217 ;;      Params:         0       0       0       0       0       0       0       0       0
  5218 ;;      Locals:         1       0       0       0       0       0       0       0       0
  5219 ;;      Temps:          1       0       0       0       0       0       0       0       0
  5220 ;;      Totals:         2       0       0       0       0       0       0       0       0
  5221 ;;Total ram usage:        2 bytes
  5222 ;; Hardware stack levels used:    1
  5223 ;; Hardware stack levels required when called:    1
  5224 ;; This function calls:
  5225 ;;		_MSdelay
  5226 ;; This function is called by:
  5227 ;;		_LCD_String
  5228 ;;		_keyfind
  5229 ;; This function uses a non-reentrant model
  5230 ;;
  5231                           
  5232                           	psect	text23
  5233  0024CA                     __ptext23:
  5234                           	opt callstack 0
  5235  0024CA                     _LCD_Char:
  5236                           	opt callstack 28
  5237                           
  5238                           ;incstack = 0
  5239                           ;LCD_Char@dat stored from wreg
  5240  0024CA  6E08               	movwf	LCD_Char@dat^0,c
  5241  0024CC                     
  5242                           ;lcd.c: 37: LATD = (LATD & 0x0f) | (0xF0 & dat);
  5243  0024CC  C008  F007         	movff	LCD_Char@dat,??_LCD_Char
  5244  0024D0  0EF0               	movlw	240
  5245  0024D2  1607               	andwf	??_LCD_Char^0,f,c
  5246  0024D4  508C               	movf	140,w,c	;volatile
  5247  0024D6  0B0F               	andlw	15
  5248  0024D8  1007               	iorwf	??_LCD_Char^0,w,c
  5249  0024DA  6E8C               	movwf	140,c	;volatile
  5250  0024DC                     
  5251                           ;lcd.c: 38: LATD0 = 1;
  5252  0024DC  808C               	bsf	3980,0,c	;volatile
  5253  0024DE                     
  5254                           ;lcd.c: 39: LATD1 = 1;
  5255  0024DE  828C               	bsf	3980,1,c	;volatile
  5256  0024E0                     
  5257                           ;lcd.c: 40: __nop();
  5258  0024E0  F000               	nop	
  5259  0024E2                     
  5260                           ;lcd.c: 41: LATD1 = 0;
  5261  0024E2  928C               	bcf	3980,1,c	;volatile
  5262  0024E4                     
  5263                           ;lcd.c: 42: MSdelay(1);
  5264  0024E4  0E00               	movlw	0
  5265  0024E6  6E02               	movwf	(MSdelay@val+1)^0,c
  5266  0024E8  0E01               	movlw	1
  5267  0024EA  6E01               	movwf	MSdelay@val^0,c
  5268  0024EC  ECB1  F012         	call	_MSdelay	;wreg free
  5269  0024F0                     
  5270                           ;lcd.c: 43: LATD = (LATD & 0x0f) | (dat<<4);
  5271  0024F0  C008  F007         	movff	LCD_Char@dat,??_LCD_Char
  5272  0024F4  3A07               	swapf	??_LCD_Char^0,f,c
  5273  0024F6  0EF0               	movlw	240
  5274  0024F8  1607               	andwf	??_LCD_Char^0,f,c
  5275  0024FA  508C               	movf	140,w,c	;volatile
  5276  0024FC  0B0F               	andlw	15
  5277  0024FE  1007               	iorwf	??_LCD_Char^0,w,c
  5278  002500  6E8C               	movwf	140,c	;volatile
  5279  002502                     
  5280                           ;lcd.c: 44: LATD1 = 1;
  5281  002502  828C               	bsf	3980,1,c	;volatile
  5282  002504                     
  5283                           ;lcd.c: 45: __nop();
  5284  002504  F000               	nop	
  5285  002506                     
  5286                           ;lcd.c: 46: LATD1 = 0;
  5287  002506  928C               	bcf	3980,1,c	;volatile
  5288                           
  5289                           ;lcd.c: 47: MSdelay(3);
  5290  002508  0E00               	movlw	0
  5291  00250A  6E02               	movwf	(MSdelay@val+1)^0,c
  5292  00250C  0E03               	movlw	3
  5293  00250E  6E01               	movwf	MSdelay@val^0,c
  5294  002510  ECB1  F012         	call	_MSdelay	;wreg free
  5295  002514  0012               	return		;funcret
  5296  002516                     __end_of_LCD_Char:
  5297                           	opt callstack 0
  5298                           
  5299 ;; *************** function _LCD_Init *****************
  5300 ;; Defined at:
  5301 ;;		line 4 in file "lcd.c"
  5302 ;; Parameters:    Size  Location     Type
  5303 ;;		None
  5304 ;; Auto vars:     Size  Location     Type
  5305 ;;		None
  5306 ;; Return value:  Size  Location     Type
  5307 ;;                  1    wreg      void 
  5308 ;; Registers used:
  5309 ;;		wreg, status,2, status,0, cstack
  5310 ;; Tracked objects:
  5311 ;;		On entry : 0/0
  5312 ;;		On exit  : 0/0
  5313 ;;		Unchanged: 0/0
  5314 ;; Data sizes:     COMRAM   BANK0   BANK1   BANK2   BANK3   BANK4   BANK5   BANK6   BANK7
  5315 ;;      Params:         0       0       0       0       0       0       0       0       0
  5316 ;;      Locals:         0       0       0       0       0       0       0       0       0
  5317 ;;      Temps:          0       0       0       0       0       0       0       0       0
  5318 ;;      Totals:         0       0       0       0       0       0       0       0       0
  5319 ;;Total ram usage:        0 bytes
  5320 ;; Hardware stack levels used:    1
  5321 ;; Hardware stack levels required when called:    2
  5322 ;; This function calls:
  5323 ;;		_LCD_Command
  5324 ;;		_MSdelay
  5325 ;; This function is called by:
  5326 ;;		_main
  5327 ;; This function uses a non-reentrant model
  5328 ;;
  5329                           
  5330                           	psect	text24
  5331  002710                     __ptext24:
  5332                           	opt callstack 0
  5333  002710                     _LCD_Init:
  5334                           	opt callstack 28
  5335  002710                     
  5336                           ;lcd.c: 6: TRISD = 0;
  5337  002710  0E00               	movlw	0
  5338  002712  6E95               	movwf	149,c	;volatile
  5339  002714                     
  5340                           ;lcd.c: 7: MSdelay(15);
  5341  002714  0E00               	movlw	0
  5342  002716  6E02               	movwf	(MSdelay@val+1)^0,c
  5343  002718  0E0F               	movlw	15
  5344  00271A  6E01               	movwf	MSdelay@val^0,c
  5345  00271C  ECB1  F012         	call	_MSdelay	;wreg free
  5346  002720                     
  5347                           ;lcd.c: 8: LCD_Command(0x02);
  5348  002720  0E02               	movlw	2
  5349  002722  EC8B  F012         	call	_LCD_Command
  5350  002726                     
  5351                           ;lcd.c: 10: LCD_Command(0x28);
  5352  002726  0E28               	movlw	40
  5353  002728  EC8B  F012         	call	_LCD_Command
  5354  00272C                     
  5355                           ;lcd.c: 12: LCD_Command(0x01);
  5356  00272C  0E01               	movlw	1
  5357  00272E  EC8B  F012         	call	_LCD_Command
  5358  002732                     
  5359                           ;lcd.c: 13: LCD_Command(0x0c);
  5360  002732  0E0C               	movlw	12
  5361  002734  EC8B  F012         	call	_LCD_Command
  5362  002738                     
  5363                           ;lcd.c: 14: LCD_Command(0x06);
  5364  002738  0E06               	movlw	6
  5365  00273A  EC8B  F012         	call	_LCD_Command
  5366  00273E  0012               	return		;funcret
  5367  002740                     __end_of_LCD_Init:
  5368                           	opt callstack 0
  5369                           
  5370 ;; *************** function _LCD_Clear *****************
  5371 ;; Defined at:
  5372 ;;		line 78 in file "lcd.c"
  5373 ;; Parameters:    Size  Location     Type
  5374 ;;		None
  5375 ;; Auto vars:     Size  Location     Type
  5376 ;;		None
  5377 ;; Return value:  Size  Location     Type
  5378 ;;                  1    wreg      void 
  5379 ;; Registers used:
  5380 ;;		wreg, status,2, status,0, cstack
  5381 ;; Tracked objects:
  5382 ;;		On entry : 0/0
  5383 ;;		On exit  : 0/0
  5384 ;;		Unchanged: 0/0
  5385 ;; Data sizes:     COMRAM   BANK0   BANK1   BANK2   BANK3   BANK4   BANK5   BANK6   BANK7
  5386 ;;      Params:         0       0       0       0       0       0       0       0       0
  5387 ;;      Locals:         0       0       0       0       0       0       0       0       0
  5388 ;;      Temps:          0       0       0       0       0       0       0       0       0
  5389 ;;      Totals:         0       0       0       0       0       0       0       0       0
  5390 ;;Total ram usage:        0 bytes
  5391 ;; Hardware stack levels used:    1
  5392 ;; Hardware stack levels required when called:    2
  5393 ;; This function calls:
  5394 ;;		_LCD_Command
  5395 ;; This function is called by:
  5396 ;;		_main
  5397 ;; This function uses a non-reentrant model
  5398 ;;
  5399                           
  5400                           	psect	text25
  5401  002750                     __ptext25:
  5402                           	opt callstack 0
  5403  002750                     _LCD_Clear:
  5404                           	opt callstack 28
  5405  002750                     
  5406                           ;lcd.c: 80: LCD_Command(0x01);
  5407  002750  0E01               	movlw	1
  5408  002752  EC8B  F012         	call	_LCD_Command
  5409  002756  0012               	return		;funcret
  5410  002758                     __end_of_LCD_Clear:
  5411                           	opt callstack 0
  5412                           
  5413 ;; *************** function _LCD_Command *****************
  5414 ;; Defined at:
  5415 ;;		line 17 in file "lcd.c"
  5416 ;; Parameters:    Size  Location     Type
  5417 ;;  cmd             1    wreg     unsigned char 
  5418 ;; Auto vars:     Size  Location     Type
  5419 ;;  cmd             1    7[COMRAM] unsigned char 
  5420 ;; Return value:  Size  Location     Type
  5421 ;;                  1    wreg      void 
  5422 ;; Registers used:
  5423 ;;		wreg, status,2, status,0, cstack
  5424 ;; Tracked objects:
  5425 ;;		On entry : 0/0
  5426 ;;		On exit  : 0/0
  5427 ;;		Unchanged: 0/0
  5428 ;; Data sizes:     COMRAM   BANK0   BANK1   BANK2   BANK3   BANK4   BANK5   BANK6   BANK7
  5429 ;;      Params:         0       0       0       0       0       0       0       0       0
  5430 ;;      Locals:         1       0       0       0       0       0       0       0       0
  5431 ;;      Temps:          1       0       0       0       0       0       0       0       0
  5432 ;;      Totals:         2       0       0       0       0       0       0       0       0
  5433 ;;Total ram usage:        2 bytes
  5434 ;; Hardware stack levels used:    1
  5435 ;; Hardware stack levels required when called:    1
  5436 ;; This function calls:
  5437 ;;		_MSdelay
  5438 ;; This function is called by:
  5439 ;;		_main
  5440 ;;		_LCD_Init
  5441 ;;		_LCD_String_xy
  5442 ;;		_LCD_Clear
  5443 ;; This function uses a non-reentrant model
  5444 ;;
  5445                           
  5446                           	psect	text26
  5447  002516                     __ptext26:
  5448                           	opt callstack 0
  5449  002516                     _LCD_Command:
  5450                           	opt callstack 28
  5451                           
  5452                           ;incstack = 0
  5453                           ;LCD_Command@cmd stored from wreg
  5454  002516  6E08               	movwf	LCD_Command@cmd^0,c
  5455  002518                     
  5456                           ;lcd.c: 19: LATD = (LATD & 0x0f) |(0xF0 & cmd);
  5457  002518  C008  F007         	movff	LCD_Command@cmd,??_LCD_Command
  5458  00251C  0EF0               	movlw	240
  5459  00251E  1607               	andwf	??_LCD_Command^0,f,c
  5460  002520  508C               	movf	140,w,c	;volatile
  5461  002522  0B0F               	andlw	15
  5462  002524  1007               	iorwf	??_LCD_Command^0,w,c
  5463  002526  6E8C               	movwf	140,c	;volatile
  5464  002528                     
  5465                           ;lcd.c: 20: LATD0 = 0;
  5466  002528  908C               	bcf	3980,0,c	;volatile
  5467  00252A                     
  5468                           ;lcd.c: 21: LATD1 = 1;
  5469  00252A  828C               	bsf	3980,1,c	;volatile
  5470  00252C                     
  5471                           ;lcd.c: 22: __nop();
  5472  00252C  F000               	nop	
  5473  00252E                     
  5474                           ;lcd.c: 23: LATD1 = 0;
  5475  00252E  928C               	bcf	3980,1,c	;volatile
  5476  002530                     
  5477                           ;lcd.c: 24: MSdelay(1);
  5478  002530  0E00               	movlw	0
  5479  002532  6E02               	movwf	(MSdelay@val+1)^0,c
  5480  002534  0E01               	movlw	1
  5481  002536  6E01               	movwf	MSdelay@val^0,c
  5482  002538  ECB1  F012         	call	_MSdelay	;wreg free
  5483  00253C                     
  5484                           ;lcd.c: 25: LATD = (LATD & 0x0f) | (cmd<<4);
  5485  00253C  C008  F007         	movff	LCD_Command@cmd,??_LCD_Command
  5486  002540  3A07               	swapf	??_LCD_Command^0,f,c
  5487  002542  0EF0               	movlw	240
  5488  002544  1607               	andwf	??_LCD_Command^0,f,c
  5489  002546  508C               	movf	140,w,c	;volatile
  5490  002548  0B0F               	andlw	15
  5491  00254A  1007               	iorwf	??_LCD_Command^0,w,c
  5492  00254C  6E8C               	movwf	140,c	;volatile
  5493  00254E                     
  5494                           ;lcd.c: 26: LATD1 = 1;
  5495  00254E  828C               	bsf	3980,1,c	;volatile
  5496  002550                     
  5497                           ;lcd.c: 27: __nop();
  5498  002550  F000               	nop	
  5499  002552                     
  5500                           ;lcd.c: 28: LATD1 = 0;
  5501  002552  928C               	bcf	3980,1,c	;volatile
  5502                           
  5503                           ;lcd.c: 29: MSdelay(3);
  5504  002554  0E00               	movlw	0
  5505  002556  6E02               	movwf	(MSdelay@val+1)^0,c
  5506  002558  0E03               	movlw	3
  5507  00255A  6E01               	movwf	MSdelay@val^0,c
  5508  00255C  ECB1  F012         	call	_MSdelay	;wreg free
  5509  002560  0012               	return		;funcret
  5510  002562                     __end_of_LCD_Command:
  5511                           	opt callstack 0
  5512                           
  5513 ;; *************** function _MSdelay *****************
  5514 ;; Defined at:
  5515 ;;		line 83 in file "lcd.c"
  5516 ;; Parameters:    Size  Location     Type
  5517 ;;  val             2    0[COMRAM] unsigned int 
  5518 ;; Auto vars:     Size  Location     Type
  5519 ;;  j               2    4[COMRAM] unsigned int 
  5520 ;;  i               2    2[COMRAM] unsigned int 
  5521 ;; Return value:  Size  Location     Type
  5522 ;;                  1    wreg      void 
  5523 ;; Registers used:
  5524 ;;		wreg, status,2, status,0
  5525 ;; Tracked objects:
  5526 ;;		On entry : 0/0
  5527 ;;		On exit  : 0/0
  5528 ;;		Unchanged: 0/0
  5529 ;; Data sizes:     COMRAM   BANK0   BANK1   BANK2   BANK3   BANK4   BANK5   BANK6   BANK7
  5530 ;;      Params:         2       0       0       0       0       0       0       0       0
  5531 ;;      Locals:         4       0       0       0       0       0       0       0       0
  5532 ;;      Temps:          0       0       0       0       0       0       0       0       0
  5533 ;;      Totals:         6       0       0       0       0       0       0       0       0
  5534 ;;Total ram usage:        6 bytes
  5535 ;; Hardware stack levels used:    1
  5536 ;; This function calls:
  5537 ;;		Nothing
  5538 ;; This function is called by:
  5539 ;;		_main
  5540 ;;		_LCD_Init
  5541 ;;		_LCD_Command
  5542 ;;		_LCD_Char
  5543 ;;		_keyfind
  5544 ;; This function uses a non-reentrant model
  5545 ;;
  5546                           
  5547                           	psect	text27
  5548  002562                     __ptext27:
  5549                           	opt callstack 0
  5550  002562                     _MSdelay:
  5551                           	opt callstack 29
  5552  002562                     
  5553                           ;lcd.c: 85: unsigned int i,j;;lcd.c: 86: for(i=0;i<val;i++)
  5554  002562  0E00               	movlw	0
  5555  002564  6E04               	movwf	(MSdelay@i+1)^0,c
  5556  002566  0E00               	movlw	0
  5557  002568  6E03               	movwf	MSdelay@i^0,c
  5558  00256A  EFCA  F012         	goto	l2090
  5559  00256E                     l2078:
  5560                           
  5561                           ;lcd.c: 87: for(j=0;j<165;j++);
  5562  00256E  0E00               	movlw	0
  5563  002570  6E06               	movwf	(MSdelay@j+1)^0,c
  5564  002572  0E00               	movlw	0
  5565  002574  6E05               	movwf	MSdelay@j^0,c
  5566  002576                     l2084:
  5567  002576  4A05               	infsnz	MSdelay@j^0,f,c
  5568  002578  2A06               	incf	(MSdelay@j+1)^0,f,c
  5569  00257A  5006               	movf	(MSdelay@j+1)^0,w,c
  5570  00257C  E109               	bnz	u1640
  5571  00257E  0EA5               	movlw	165
  5572  002580  5C05               	subwf	MSdelay@j^0,w,c
  5573  002582  A0D8               	btfss	status,0,c
  5574  002584  EFC6  F012         	goto	u1641
  5575  002588  EFC8  F012         	goto	u1640
  5576  00258C                     u1641:
  5577  00258C  EFBB  F012         	goto	l2084
  5578  002590                     u1640:
  5579  002590  4A03               	infsnz	MSdelay@i^0,f,c
  5580  002592  2A04               	incf	(MSdelay@i+1)^0,f,c
  5581  002594                     l2090:
  5582  002594  5001               	movf	MSdelay@val^0,w,c
  5583  002596  5C03               	subwf	MSdelay@i^0,w,c
  5584  002598  5002               	movf	(MSdelay@val+1)^0,w,c
  5585  00259A  5804               	subwfb	(MSdelay@i+1)^0,w,c
  5586  00259C  A0D8               	btfss	status,0,c
  5587  00259E  EFD3  F012         	goto	u1651
  5588  0025A2  EFD5  F012         	goto	u1650
  5589  0025A6                     u1651:
  5590  0025A6  EFB7  F012         	goto	l2078
  5591  0025AA                     u1650:
  5592  0025AA  0012               	return		;funcret
  5593  0025AC                     __end_of_MSdelay:
  5594                           	opt callstack 0
  5595                           
  5596                           	psect	rparam
  5597  0000                     tosu	equ	0xFFF
  5598                           tosh	equ	0xFFE
  5599                           tosl	equ	0xFFD
  5600                           stkptr	equ	0xFFC
  5601                           pclatu	equ	0xFFB
  5602                           pclath	equ	0xFFA
  5603                           pcl	equ	0xFF9
  5604                           tblptru	equ	0xFF8
  5605                           tblptrh	equ	0xFF7
  5606                           tblptrl	equ	0xFF6
  5607                           tablat	equ	0xFF5
  5608                           prodh	equ	0xFF4
  5609                           prodl	equ	0xFF3
  5610                           indf0	equ	0xFEF
  5611                           postinc0	equ	0xFEE
  5612                           postdec0	equ	0xFED
  5613                           preinc0	equ	0xFEC
  5614                           plusw0	equ	0xFEB
  5615                           fsr0h	equ	0xFEA
  5616                           fsr0l	equ	0xFE9
  5617                           wreg	equ	0xFE8
  5618                           indf1	equ	0xFE7
  5619                           postinc1	equ	0xFE6
  5620                           postdec1	equ	0xFE5
  5621                           preinc1	equ	0xFE4
  5622                           plusw1	equ	0xFE3
  5623                           fsr1h	equ	0xFE2
  5624                           fsr1l	equ	0xFE1
  5625                           bsr	equ	0xFE0
  5626                           indf2	equ	0xFDF
  5627                           postinc2	equ	0xFDE
  5628                           postdec2	equ	0xFDD
  5629                           preinc2	equ	0xFDC
  5630                           plusw2	equ	0xFDB
  5631                           fsr2h	equ	0xFDA
  5632                           fsr2l	equ	0xFD9
  5633                           status	equ	0xFD8


Data Sizes:
    Strings     28
    Constant    0
    Data        16
    BSS         3
    Persistent  0
    Stack       0

Auto Spaces:
    Space          Size  Autos    Used
    COMRAM           95     70      89
    BANK0           160     51      51
    BANK1           256      0       0
    BANK2           256      0       0
    BANK3           256      0       0
    BANK4           256      0       0
    BANK5           256      0       0
    BANK6           256      0       0
    BANK7           256      0       0

Pointer List with Targets:

    memset@p1	PTR void  size(2) Largest target is 10
		 -> main@result_output(BANK0[10]), main@op2(BANK0[10]), main@op1(BANK0[10]), 

    memset@p	PTR unsigned char  size(2) Largest target is 10
		 -> main@result_output(BANK0[10]), main@op2(BANK0[10]), main@op1(BANK0[10]), 

    ultoa@buf	PTR unsigned char  size(2) Largest target is 10
		 -> main@result_output(BANK0[10]), 

    sp__ultoa	PTR unsigned char  size(2) Largest target is 10
		 -> main@result_output(BANK0[10]), 

    ltoa@buf	PTR unsigned char  size(2) Largest target is 10
		 -> main@result_output(BANK0[10]), 

    ltoa@cp	PTR unsigned char  size(2) Largest target is 10
		 -> main@result_output(BANK0[10]), 

    utoa@buf	PTR unsigned char  size(2) Largest target is 15
		 -> display_float@output1(COMRAM[15]), display_float@output(COMRAM[15]), 

    sp__utoa	PTR unsigned char  size(2) Largest target is 15
		 -> display_float@output1(COMRAM[15]), display_float@output(COMRAM[15]), 

    itoa@buf	PTR unsigned char  size(2) Largest target is 15
		 -> display_float@output1(COMRAM[15]), display_float@output(COMRAM[15]), 

    itoa@cp	PTR unsigned char  size(2) Largest target is 15
		 -> display_float@output1(COMRAM[15]), display_float@output(COMRAM[15]), 

    atol@s	PTR const unsigned char  size(2) Largest target is 10
		 -> main@op2(BANK0[10]), main@op1(BANK0[10]), 

    LCD_String_xy@msg	PTR const unsigned char  size(2) Largest target is 12
		 -> STR_2(CODE[8]), STR_1(CODE[12]), 

    LCD_String@msg	PTR const unsigned char  size(2) Largest target is 15
		 -> display_float@output1(COMRAM[15]), STR_4(CODE[2]), display_float@output(COMRAM[15]), STR_3(CODE[6]), 
		 -> main@result_output(BANK0[10]), STR_2(CODE[8]), STR_1(CODE[12]), 

    sp__itoa	PTR unsigned char  size(2) Largest target is 15
		 -> display_float@output1(COMRAM[15]), display_float@output(COMRAM[15]), 

    sp__memset	PTR void  size(2) Largest target is 10
		 -> main@result_output(BANK0[10]), main@op2(BANK0[10]), main@op1(BANK0[10]), 

    sp__ltoa	PTR unsigned char  size(2) Largest target is 10
		 -> main@result_output(BANK0[10]), 


Critical Paths under _main in COMRAM

    _main->_display_float
    _ltoa->_ultoa
    _ultoa->___lldiv
    _keyfind->_LCD_Char
    _display_float->___flsub
    _itoa->_utoa
    _utoa->___lwdiv
    ___xxtofl->___fltol
    ___flsub->___xxtofl
    _atol->___lmul
    ___fldiv->___xxtofl
    _LCD_String_xy->_LCD_String
    _LCD_String->_LCD_Char
    _LCD_Char->_MSdelay
    _LCD_Init->_LCD_Command
    _LCD_Clear->_LCD_Command
    _LCD_Command->_MSdelay

Critical Paths under _main in BANK0

    None.

Critical Paths under _main in BANK1

    None.

Critical Paths under _main in BANK2

    None.

Critical Paths under _main in BANK3

    None.

Critical Paths under _main in BANK4

    None.

Critical Paths under _main in BANK5

    None.

Critical Paths under _main in BANK6

    None.

Critical Paths under _main in BANK7

    None.

Call Graph Tables:

 ---------------------------------------------------------------------------------
 (Depth) Function   	        Calls       Base Space   Used Autos Params    Refs
 ---------------------------------------------------------------------------------
 (0) _main                                                51    51      0   27988
                                              0 BANK0     51    51      0
                          _LCD_Clear
                        _LCD_Command
                           _LCD_Init
                         _LCD_String
                      _LCD_String_xy
                            _MSdelay
                            ___fldiv
                             ___lmul
                           ___xxtofl
                               _atol
                      _display_float
                            _keyfind
                               _ltoa
                             _memset
 ---------------------------------------------------------------------------------
 (1) _memset                                               8     2      6     780
                                              0 COMRAM     8     2      6
 ---------------------------------------------------------------------------------
 (1) _ltoa                                                10     2      8    2153
                                             26 COMRAM    10     2      8
                              _ultoa
 ---------------------------------------------------------------------------------
 (2) _ultoa                                               13     5      8    1306
                                             13 COMRAM    13     5      8
                            ___lldiv
                            ___llmod
 ---------------------------------------------------------------------------------
 (3) ___llmod                                              9     1      8     311
                                              0 COMRAM     9     1      8
 ---------------------------------------------------------------------------------
 (3) ___lldiv                                             13     5      8     466
                                              0 COMRAM    13     5      8
 ---------------------------------------------------------------------------------
 (1) _keyfind                                              0     0      0    1900
                           _LCD_Char
                            _MSdelay
 ---------------------------------------------------------------------------------
 (1) _display_float                                       38    34      4    9179
                                             32 COMRAM    38    34      4
                         _LCD_String
                            ___flmul
                            ___flsub
                            ___fltol
                           ___xxtofl
                               _itoa
 ---------------------------------------------------------------------------------
 (2) _itoa                                                 8     2      6    1926
                                             16 COMRAM     8     2      6
                            ___fltol (ARG)
                               _utoa
 ---------------------------------------------------------------------------------
 (3) _utoa                                                 9     3      6    1307
                                              7 COMRAM     9     3      6
                            ___lwdiv
                            ___lwmod
 ---------------------------------------------------------------------------------
 (4) ___lwmod                                              5     1      4     311
                                              0 COMRAM     5     1      4
 ---------------------------------------------------------------------------------
 (4) ___lwdiv                                              7     3      4     466
                                              0 COMRAM     7     3      4
 ---------------------------------------------------------------------------------
 (2) ___xxtofl                                            14    10      4     550
                                             10 COMRAM    14    10      4
                            ___fltol (ARG)
 ---------------------------------------------------------------------------------
 (2) ___fltol                                             10     6      4     457
                                              0 COMRAM    10     6      4
 ---------------------------------------------------------------------------------
 (2) ___flsub                                              8     0      8    2585
                                             24 COMRAM     8     0      8
                            ___fladd
                            ___fltol (ARG)
                           ___xxtofl (ARG)
 ---------------------------------------------------------------------------------
 (3) ___fladd                                             16     8      8    2262
                                              0 COMRAM    16     8      8
 ---------------------------------------------------------------------------------
 (2) ___flmul                                             25    17      8    1744
                                              0 COMRAM    25    17      8
 ---------------------------------------------------------------------------------
 (1) _atol                                                14    10      4    1062
                                             12 COMRAM    14    10      4
                             ___lmul
                            _isdigit
 ---------------------------------------------------------------------------------
 (2) _isdigit                                              3     3      0      68
                                              0 COMRAM     3     3      0
 ---------------------------------------------------------------------------------
 (2) ___lmul                                              12     4      8     522
                                              0 COMRAM    12     4      8
 ---------------------------------------------------------------------------------
 (1) ___fldiv                                             25    17      8    1399
                                             24 COMRAM    25    17      8
                           ___xxtofl (ARG)
 ---------------------------------------------------------------------------------
 (1) _LCD_String_xy                                        5     2      3    3036
                                             10 COMRAM     5     2      3
                        _LCD_Command
                         _LCD_String
 ---------------------------------------------------------------------------------
 (2) _LCD_String                                           2     0      2    1625
                                              8 COMRAM     2     0      2
                           _LCD_Char
 ---------------------------------------------------------------------------------
 (2) _LCD_Char                                             2     2      0     972
                                              6 COMRAM     2     2      0
                            _MSdelay
 ---------------------------------------------------------------------------------
 (1) _LCD_Init                                             0     0      0    1900
                        _LCD_Command
                            _MSdelay
 ---------------------------------------------------------------------------------
 (1) _LCD_Clear                                            0     0      0     972
                        _LCD_Command
 ---------------------------------------------------------------------------------
 (2) _LCD_Command                                          2     2      0     972
                                              6 COMRAM     2     2      0
                            _MSdelay
 ---------------------------------------------------------------------------------
 (2) _MSdelay                                              6     4      2     928
                                              0 COMRAM     6     4      2
 ---------------------------------------------------------------------------------
 Estimated maximum stack depth 4
 ---------------------------------------------------------------------------------

 Call Graph Graphs:

 _main (ROOT)
   _LCD_Clear
     _LCD_Command
       _MSdelay
   _LCD_Command
     _MSdelay
   _LCD_Init
     _LCD_Command
       _MSdelay
     _MSdelay
   _LCD_String
     _LCD_Char
       _MSdelay
   _LCD_String_xy
     _LCD_Command
       _MSdelay
     _LCD_String
       _LCD_Char
         _MSdelay
   _MSdelay
   ___fldiv
     ___xxtofl (ARG)
       ___fltol (ARG)
   ___lmul
   ___xxtofl
     ___fltol (ARG)
   _atol
     ___lmul
     _isdigit
   _display_float
     _LCD_String
       _LCD_Char
         _MSdelay
     ___flmul
     ___flsub
       ___fladd
       ___fltol (ARG)
       ___xxtofl (ARG)
         ___fltol (ARG)
     ___fltol
     ___xxtofl
       ___fltol (ARG)
     _itoa
       ___fltol (ARG)
       _utoa (ARG)
         ___lwdiv
         ___lwmod
   _keyfind
     _LCD_Char
       _MSdelay
     _MSdelay
   _ltoa
     _ultoa
       ___lldiv
       ___llmod
   _memset

 Address spaces:
Name               Size   Autos  Total    Cost      Usage
BIGRAM             7FF      0       0      21        0.0%
EEDATA             100      0       0       0        0.0%
BITBANK7           100      0       0      18        0.0%
BANK7              100      0       0      19        0.0%
BITBANK6           100      0       0      16        0.0%
BANK6              100      0       0      17        0.0%
BITBANK5           100      0       0      14        0.0%
BANK5              100      0       0      15        0.0%
BITBANK4           100      0       0      12        0.0%
BANK4              100      0       0      13        0.0%
BITBANK3           100      0       0      10        0.0%
BANK3              100      0       0      11        0.0%
BITBANK2           100      0       0       8        0.0%
BANK2              100      0       0       9        0.0%
BITBANK1           100      0       0       6        0.0%
BANK1              100      0       0       7        0.0%
BITBANK0            A0      0       0       4        0.0%
BANK0               A0     33      33       5       31.9%
BITCOMRAM           5F      0       0       0        0.0%
COMRAM              5F     46      59       1       93.7%
BITSFR               0      0       0     200        0.0%
SFR                  0      0       0     200        0.0%
STACK                0      0       0       2        0.0%
NULL                 0      0       0       0        0.0%
ABS                  0      0      8C      20        0.0%
DATA                 0      0      8C       3        0.0%
CODE                 0      0       0       0        0.0%


Microchip Technology PIC18 Macro Assembler V2.10 build 88905656 
Symbol Table                                                                                   Mon Nov 04 23:35:53 2019

           ___fldiv@aexp 0031             ___fldiv@bexp 0030             ___fldiv@sign 0029  
           ?_LCD_Command 0001                       l62 14BA                       l48 1270  
                     l65 1ECC                       l49 143E                       l82 273E  
                     l85 2560                       l94 2474                       l88 2514  
                     l99 2674              __CFG_BOR$ON 000000              __CFG_BORV$3 000000  
            ?_LCD_String 0009             __CFG_CP0$OFF 000000             __CFG_CP1$OFF 000000  
           __CFG_CP2$OFF 000000             __CFG_CP3$OFF 000000                      l110 25AA  
                    l102 2756                      l204 224C                      l141 1904  
                    l150 198C                      l160 1AC4                      l154 19D0  
                    l146 1948                      l181 23A2                      l182 23B2  
                    l197 223C                      l703 0B26                      l712 0BF6  
                    l713 0BE4                      l459 20E6                      l740 1856  
                    l820 1BB4                      l813 1B1C                      l742 16B6  
                    l751 16FC                      l728 25F0                      l816 1C78  
                    l656 2348                      l753 1774                      l745 167A  
                    l649 2340                      l585 22D4                      l754 1762  
                    l842 1DA2                      l834 1C7A                      l666 2416  
                    l578 22C4                      l843 1DB2                      l827 1C10  
                    l659 240E                      l772 0DA2                      l860 217C  
                    l781 1010                      l782 0FFE                      l686 0A0C  
                    l862 21A8                      l854 2634                      l695 0CDC  
                    l687 09FA                      l848 26DE                      l776 1106  
                    l688 09C0                      l874 1FB4                      l882 26AC  
                    l779 0F98                      l876 1FE0                      l868 24C8  
                    l789 10C8             __CFG_CPB$OFF 000000             __CFG_CPD$OFF 000000  
                    prod 000FF3                      wreg 000FE8             ___flmul@aexp 0012  
           ___flmul@bexp 0013             ___flmul@sign 000D             ___flmul@temp 0018  
           ___flmul@prod 0014             __CFG_LVP$OFF 000000              LCD_Char@dat 0008  
           ___fltol@exp1 000A             __CFG_WDT$OFF 000000                     l2100 2300  
                   l2110 2334                     l2102 230E                     l3000 15E0  
                   l2200 08B2                     l2112 233A                     l2104 2314  
                   l2120 23D6                     l2130 24CC                     l3010 162E  
                   l2210 08E6                     l2202 08B4                     l2106 232A  
                   l2122 23E4                     l2114 23B4                     l2140 24E4  
                   l2132 24DC                     l3020 1678                     l3012 163E  
                   l3004 15F4                     l2300 0AF4                     l2220 0922  
                   l2204 08C4                     l2212 08EE                     l2108 2332  
                   l2124 23FA                     l2116 23C6                     l3100 116A  
                   l2142 24F0                     l2134 24DE                     l3030 16C6  
                   l3022 1684                     l3014 1646                     l3006 160E  
                   l2310 0B4C                     l2302 0AF6                     l2230 0936  
                   l2222 0926                     l2214 08FE                     l2206 08D4  
                   l2126 2402                     l2118 23CE                     l2150 21AA  
                   l3110 11B6                     l3102 1172                     l2144 2502  
                   l2136 24E0                     l3032 16DC                     l3040 170C  
                   l3024 16A2                     l3016 1656                     l3008 161E  
                   l2320 0B7A                     l2304 0B06                     l2240 094A  
                   l2232 093A                     l2224 092A                     l2216 0910  
                   l2208 08E4                     l2128 2408                     l2400 212E  
                   l2160 21F2                     l2152 21BA                     l3120 120C  
                   l3112 11C8                     l3104 117E                     l2090 2594  
                   l2146 2504                     l2138 24E2                     l3042 171A  
                   l3034 16E2                     l3026 16A4                     l3018 166A  
                   l2322 0B88                     l2314 0B60                     l2330 0BA6  
                   l2306 0B16                     l2242 094E                     l2234 093E  
                   l2226 092E                     l2218 091E                     l2250 095E  
                   l2410 2180                     l2402 2134                     l2170 2236  
                   l2162 21FC                     l2154 21D0                     l3130 124C  
                   l3122 1214                     l3114 11DA                     l3106 1192  
                   l2084 2576                     l2076 2562                     l2420 2518  
                   l2148 2506                     l3052 1784                     l3060 17CC  
                   l3044 171E                     l3036 16EC                     l3028 16B4  
                   l2500 0D8C                     l2324 0B90                     l2316 0B6A  
                   l2308 0B3C                     l2332 0BB4                     l2260 09CE  
                   l2252 0962                     l2244 0952                     l2236 0942  
                   l2228 0932                     l2180 084A                     l2172 081E  
                   l2092 22D6                     l2412 218C                     l2404 214C  
                   l2164 221A                     l2156 21D8                     l3140 12CA  
                   l3132 125E                     l3116 11EC                     l3108 11A4  
                   l2086 257A                     l2078 256E                     l2430 2530  
                   l2422 2528                     l3070 1836                     l3062 17E6  
                   l3054 1790                     l3046 172C                     l3038 16FA  
                   l2510 0DD6                     l2502 0D92                     l2342 0C06  
                   l2350 0C5C                     l2334 0BB8                     l2326 0B94  
                   l2318 0B78                     l2270 09F8                     l2262 09DA  
                   l2254 098C                     l2246 0956                     l2238 0946  
                   l2190 0884                     l2182 085A                     l2174 082A  
                   l2094 22DE                     l2414 2192                     l2406 2168  
                   l2166 222A                     l2158 21E4                     l3142 12D4  
                   l3134 1274                     l3118 11FC                     l3126 1228  
                   l2088 2590                     l2432 253C                     l2424 252A  
                   l2440 2418                     l3072 1844                     l3064 17FC  
                   l3056 179E                     l3048 175A                     l2520 0E26  
                   l2512 0DE2                     l2504 0DB2                     l2360 0CAE  
                   l2352 0C6C                     l2344 0C12                     l2336 0BC6  
                   l2328 0BA4                     l2280 0A4E                     l2272 0A1A  
                   l2264 09DE                     l2256 09A8                     l2248 095A  
                   l2192 088A                     l2184 086A                     l2176 0838  
                   l2600 25AC                     l2096 22F0                     l2416 21A4  
                   l2408 2178                     l2168 222C                     l3160 1374  
                   l3144 12EC                     l3136 1280                     l3128 123A  
                   l2434 254E                     l2426 252C                     l2442 241C  
                   l3074 184A                     l3066 1816                     l3058 17C8  
                   l2530 0E68                     l2522 0E32                     l2514 0DEC  
                   l2506 0DC2                     l2370 0CCC                     l2362 0CB4  
                   l2354 0C7C                     l2346 0C20                     l2338 0BDC  
                   l2290 0A88                     l2282 0A5C                     l2274 0A2A  
                   l2266 09EC                     l2258 09B8                     l2194 089C  
                   l2186 086C                     l2178 083A                     l2602 25BC  
                   l2098 22F8                     l2450 2600                     l3162 138A  
                   l3154 133C                     l3146 1310                     l3138 1292  
                   l3090 1130                     l2436 2550                     l2428 252E  
                   l2444 2440                     l3076 184C                     l3068 1832  
                   l2460 234A                     l2700 26C4                     l2540 0ECA  
                   l2532 0E74                     l2524 0E3E                     l2516 0E02  
                   l2364 0CB6                     l2356 0C9C                     l2348 0C5A  
                   l2292 0A8A                     l2284 0A6A                     l2268 09EE  
                   l2196 089E                     l2188 0874                     l2620 204C  
                   l2612 200C                     l2452 260C                     l2380 2278  
                   l3180 148A                     l3164 138E                     l3148 1320  
                   l3172 1416                     l3092 1142                     l3084 1108  
                   l2438 2552                     l2446 2444                     l2462 235A  
                   l2702 26D4                     l2550 0F60                     l2542 0ED6  
                   l2534 0E84                     l2526 0E4C                     l2518 0E0E  
                   l2470 0CDE                     l2366 0CBC                     l2358 0CA0  
                   l2294 0A94                     l2286 0A76                     l2278 0A3E  
                   l2198 08A4                     l2630 207C                     l2622 205A  
                   l2614 2036                     l2606 1FE2                     l2390 20E8  
                   l2454 2610                     l2382 2286                     l2374 224E  
                   l2710 1EDE                     l3166 139E                     l3182 14AA  
                   l3174 1442                     l3094 1154                     l3086 112A  
                   l2464 2368                     l2704 26D8                     l2560 0FB6  
                   l2552 0F7E                     l2544 0EF2                     l2536 0E9E  
                   l2528 0E58                     l2480 0D1A                     l2472 0CEA  
                   l2368 0CCA                     l2288 0A7A                     l2296 0A9A  
                   l2640 20A6                     l2632 2086                     l2616 2038  
                   l2608 1FF8                     l2392 20F0                     l2456 2618  
                   l2448 25F2                     l2800 1924                     l2384 22A4  
                   l2376 2264                     l2720 1F40                     l2712 1F14  
                   l3176 1452                     l3168 13FE                     l3096 1160  
                   l3088 112C                     l2466 2378                     l2570 1020  
                   l2562 0FBA                     l2554 0F88                     l2546 0F1C  
                   l2538 0EAE                     l2490 0D4C                     l2482 0D2A  
                   l2474 0CF8                     l2298 0AC0                     l2642 20B6  
                   l2618 2048                     l2650 1AC8                     l2394 210C  
                   l2810 1962                     l2802 1928                     l2386 22B4  
                   l2378 226C                     l2730 1FC4                     l2722 1F6A  
                   l2714 1F18                     l3178 146E                     l3098 1164  
                   l2740 2726                     l2468 2382                     l2580 1082  
                   l2572 102C                     l2564 0FC8                     l2556 0F96  
                   l2548 0F52                     l2492 0D5A                     l2484 0D30  
                   l2476 0CFA                     l2644 20C6                     l2628 2072  
                   l2652 1AD8                     l2396 2110                     l2820 19A2  
                   l2812 1968                     l2804 193A                     l2388 22BE  
                   l2732 1FCA                     l2724 1FA0                     l2716 1F2E  
                   l2708 1ECE                     l2742 272C                     l2734 2710  
                   l2750 2638                     l2590 10EA                     l2582 1096  
                   l2574 103A                     l2566 0FF6                     l2558 0FA8  
                   l2494 0D5C                     l2486 0D40                     l2478 0D0A  
                   l2646 20D6                     l2638 209A                     l2670 1B9E  
                   l2662 1B56                     l2654 1AE6                     l2398 2122  
                   l2830 19CA                     l2822 19A6                     l2814 196C  
                   l2806 1942                     l2726 1FB0                     l2718 1F3A  
                   l2744 2732                     l2736 2714                     l2760 2668  
                   l2752 2648                     l2904 1D48                     l2592 10EC  
                   l2584 10B0                     l2576 1064                     l2496 0D6C  
                   l2488 0D46                     l2680 1C1E                     l2672 1BAA  
                   l2664 1B5E                     l2656 1B2C                     l2824 19AC  
                   l2816 197E                     l2808 195E                     l2832 19E2  
                   l2728 1FB8                     l2920 24A4                     l2912 2476  
                   l2762 2750                     l2746 2738                     l2738 2720  
                   l2754 2650                     l2906 1D5C                     l2586 10CC  
                   l2594 10F2                     l2578 1068                     l2498 0D7C  
                   l2690 1C66                     l2682 1C20                     l2674 1BE6  
                   l2666 1B6A                     l2658 1B42                     l2930 1E78  
                   l2834 19F4                     l2842 1A20                     l2826 19B0  
                   l2818 1986                     l2770 1878                     l2914 2484  
                   l2756 265A                     l2748 2638                     l2908 1D6C  
                   l2596 10F6                     l2588 10DC                     l2692 1C68  
                   l2684 1C24                     l2676 1BF2                     l2668 1B9C  
                   l2932 1E84                     l2924 1DB4                     l2844 1A32  
                   l2852 1A5E                     l2836 1A0A                     l2828 19C2  
                   l2780 18C4                     l2772 1890                     l2764 1858  
                   l2916 2490                     l2940 2682                     l2758 2662  
                   l2950 14D8                     l2686 1C48                     l2678 1C00  
                   l2934 1E90                     l2926 1E14                     l2854 1A70  
                   l2862 1A9C                     l2846 1A48                     l2790 18E4  
                   l2782 18D0                     l2774 1894                     l2766 1860  
                   l2918 2494                     l2942 268E                     l2960 150C  
                   l2952 14DA                     l2696 26B0                     l2880 1C9C  
                   l2688 1C58                     l2936 1EC0                     l2928 1E48  
                   l2864 1AB2                     l2856 1A86                     l2792 18F6  
                   l2784 18D6                     l2776 189A                     l2768 1866  
                   l2944 2692                     l2970 153E                     l2954 14EA  
                   l2962 1514                     l2946 14BE                     l2698 26B4  
                   l2890 1CE2                     l2882 1CAE                     l2874 1C7A  
                   l2794 18FE                     l2786 18DA                     l2778 18AC  
                   l2938 2676                     l2980 1572                     l2972 1540  
                   l2964 1524                     l2956 14FA                     l2948 14CA  
                   l2892 1CEA                     l2884 1CC2                     l2876 1C86  
                   l2796 191A                     l2788 18E0                     l2990 15B8  
                   l2974 1550                     l2982 157A                     l2966 152A  
                   l2958 150A                     l2886 1CD4                     l2878 1C8A  
                   l2798 191E                     l2992 15BC                     l2984 158A  
                   l2976 1560                     l2968 1530                     l2888 1CD6  
                   l2986 15A0                     l2978 1570                     l2898 1D00  
                   l2988 15B0                     l2996 15D0                     l2998 15E0  
                   STR_1 0801                     STR_2 080D                     STR_3 0815  
                   STR_4 081B           ?_display_float 0021                     u2000 0B88  
                   u2001 0B84                     u2010 0BA4                     u2011 0BA0  
                   u2100 0C7C                     u2020 0BB4                     u2101 0C78  
                   u2021 0BB0                     u2110 0C9C                     u2030 0BC6  
                   u2111 0C98                     u2031 0BC2                     u2200 243C  
                   u3000 1678                     u2120 0CAE                     u2040 0BDC  
                   u3001 1674                     u2121 0CAA                     u2041 0BD8  
                   u2210 2464                     u3010 16A2                     u2130 0CCA  
                   u2050 0BF2                     u3011 169E                     u2131 0CC6  
                   u2051 0BEE                     u2220 2474                     u3100 179E  
                   u3020 16C6                     u2300 0D6C                     u2060 0C06  
                   u2140 2264                     u2221 2470                     u3101 179A  
                   u3021 16C2                     u2301 0D68                     u2061 0C02  
                   u2141 2260                     u3110 17E6                     u3030 16DC  
                   u2310 0D7C                     u2070 0C20                     u2230 2600  
                   u2150 2286                     _LATB 000F8A                     u2207 2432  
                   u3111 17E2                     u3031 16D8                     u2311 0D78  
                   u2071 0C1C                     u2231 25FC                     u2151 2282  
                   u3120 1816                     u3040 16FA                     u2240 2368  
                   u2400 1020                     u2320 0DB2                     u2080 0C5A  
                   u2160 22A4                     u3200 11FC                     _LATD 000F8C  
                   u2217 245A                     u3121 1812                     u3041 16F6  
                   u2241 2364                     u2401 101C                     u2321 0DAE  
                   u2081 0C56                     u2161 22A0                     u3201 11F8  
                   u3130 1844                     u3050 171A                     u2250 23A2  
                   u2410 103A                     u2330 0DC2                     u2090 0C6C  
                   u2170 2122                     u3210 123A                     u3131 1840  
                   u3051 1716                     u2251 239E                     u2411 1036  
                   u2331 0DBE                     u2091 0C68                     u2171 211E  
                   u3211 1236                     u3060 172C                     u2420 1082  
                   u2340 0F3C                     u2260 0CF8                     u2500 20B6  
                   u1700 23E4                     u2180 2178                     u3220 124C  
                   u3140 1192                     u3061 1728                     u2421 107E  
                   u2261 0CF4                     u2501 20B2                     u1701 23E0  
                   u2181 2174                     u3221 1248                     u3141 118E  
                   u3070 175A                     u2430 10B0                     u2350 0F96  
                   u2270 0D0A                     u2510 20C6                     u1710 23FA  
                   u2190 21A4                     u3230 125E                     u3150 11A4  
                   u3071 1756                     u2431 10AC                     u2351 0F92  
                   u2271 0D06                     u2511 20C2                     u1711 23F6  
                   u2191 21A0                     u3231 125A                     u3151 11A0  
                   u1640 2590                     u3080 1770                     u2440 10EA  
                   u2360 0FB6                     u2280 0D1A                     u1800 08C4  
                   u2600 1C58                     u2520 1AD8                     u1720 21D0  
                   u3240 1270                     u3160 11B6                     u1641 258C  
                   u3081 176C                     u2441 10E6                     u2361 0FB2  
                   u2345 0F32                     u2281 0D16                     u1801 08C0  
                   u2601 1C54                     u2521 1AD4                     u1721 21CC  
                   u3241 126C                     u3161 11B2                     u1650 25AA  
                   u3090 1784                     u2370 0FC8                     u2290 0D5A  
                   u1810 08D4                     u2450 1FF8                     u2610 1C66  
                   u2530 1AE6                     u1730 21F2                     u3250 1292  
                   u3170 11C8                     u1651 25A6                     u3091 1780  
                   u2371 0FC4                     u2291 0D56                     u1811 08D0  
                   u2451 1FF4                     u2611 1C62                     u2531 1AE2  
                   u1731 21EE                     u3251 128E                     u3171 11C4  
                   u2620 26C4                     u2380 0FF6                     u1900 0A1A  
                   u1820 0910                     u2460 202C                     u2540 1B42  
                   u1660 22F0                     u2700 18AC                     u1740 221A  
                   u3260 138A                     u3180 11DA                     u2621 26C0  
                   u2381 0FF2                     u1901 0A16                     u1821 090C  
                   u2541 1B3E                     u1661 22EC                     u2701 18A8  
                   u1741 2216                     u3261 1386                     u3181 11D6  
                   u2630 26D4                     u2390 100C                     u1910 0A2A  
                   u1830 091E                     u1750 0838                     u2470 205A  
                   u2550 1B98                     u1670 230E                     u2710 18C4  
                   u3190 11EC                     u2631 26D0                     u2391 1008  
                   u1911 0A26                     u1831 091A                     u1751 0834  
                   u2471 2056                     u2551 1B94                     u1671 230A  
                   u2711 18C0                     u3191 11E8                     u1920 0A5C  
                   u1840 098C                     u1760 084A                     u2480 206E  
                   u2560 1BE2                     u1680 232A                     u2800 19F4  
                   u2720 18F6                     u2640 1F2E                     u1921 0A58  
                   u1841 0988                     u1761 0846                     u2481 206A  
                   u2465 2022                     u2561 1BDE                     u1681 2326  
                   u2801 19F0                     u2721 18F2                     u2641 1F2A  
                   u1930 0A6A                     u1850 09A4                     u1770 085A  
                   u2490 2096                     u2570 1C00                     u1690 23C6  
                   u2810 1A32                     u2730 1916                     u2650 1FB0  
                   u1931 0A66                     u1851 099E                     u1771 0856  
                   u2491 2092                     u2571 1BFC                     u1691 23C2  
                   u2811 1A2E                     u2731 1912                     u2651 1FAC  
                   u1940 0A88                     u1860 09A6                     u1780 089C  
                   u2580 1C10                     u2820 1A70                     u2740 193A  
                   u2660 1FE0                     u2900 26AC                     u1941 0A84  
                   u1781 0898                     u2581 1C0C                     u2821 1A6C  
                   u2741 1936                     u2661 1FDC                     u2901 26A8  
                   u2670 2648                     u2910 14D8                     u2830 1C9C  
                   u1950 0AC0                     u1870 09CE                     u1790 08B2  
                   u2590 1C1E                     u2750 195A                     u2671 2644  
                   u2911 14D4                     u2831 1C98                     u1951 0ABC  
                   u1871 09CA                     u1791 08AE                     u2591 1C1A  
                   u2751 1956                     u2920 14EA                     u2840 1CAE  
                   u1960 0B06                     u1880 09EC                     u2760 197E  
                   u2680 1878                     u2921 14E6                     u2841 1CAA  
                   u1961 0B02                     u1881 09E8                     u2761 197A  
                   u2681 1874                     u2930 14FA                     u2850 1CD4  
                   u1970 0B3C                     u1890 0A0C                     u2770 199E  
                   u2690 1890                     u2931 14F6                     u2851 1CD0  
                   u1971 0B38                     u1891 0A08                     u2771 199A  
                   u2691 188C                     u2940 153E                     u2860 1CFC  
                   u1980 0B4C                     u2780 19C2                     u2941 153A  
                   u2861 1CF8                     u1981 0B48                     u2781 19BE  
                   u2950 1550                     u2870 1D5C                     u1990 0B78  
                   u2790 19E2                     u2951 154C                     u2871 1D58  
                   u1991 0B74                     u2791 19DE                     u2960 1560  
                   u2880 1D6C                     u2961 155C                     u2881 1D68  
                   u2970 15A0                     u2890 2484                     u2971 159C  
                   u2891 2480                     u2980 15E0                     u2981 15DC  
                   u2990 1656                     u2991 1652                     _RBPU 007F8F  
                   _atol 1C7A                     _main 1108                     _itoa 25F2  
     __size_of_LCD_Clear 0008                     _ltoa 2476                     fsr2h 000FDA  
            main@number1 008A                     indf2 000FDF                     fsr1l 000FE1  
            main@number2 008E                     fsr2l 000FD9                     _utoa 20E8  
                   prodh 000FF4                     prodl 000FF3                     start 0000  
        __end_of_MSdelay 25AC            __CFG_IESO$OFF 000000          ___fldiv@new_exp 002A  
          _LCD_String_xy 2636             ___param_bank 000000         __end_of_LCD_Char 2516  
       __end_of_LCD_Init 2740            __CFG_PLLDIV$1 000000           __CFG_CCP2MX$ON 000000  
          ___fltol@sign1 0009                    ?_atol 000D          __end_of___fladd 0CDE  
                  ?_main 0001          __end_of___fldiv 1858                    ?_itoa 0011  
                  ?_ltoa 001B          __end_of___flmul 1108          __end_of___flsub 25F2  
        __end_of___fltol 20E8          __end_of___lldiv 224E                    ?_utoa 0008  
        __end_of___llmod 22D6                    _LATD0 007C60                    _LATD1 007C61  
        __end_of___lwdiv 234A          __end_of___lwmod 2418                    _PORTB 000F81  
          __CFG_USBDIV$1 000000                    _TRISB 000F93                    _TRISD 000F95  
          __CFG_PWRT$OFF 000000            __CFG_WRT0$OFF 000000            __CFG_WRT1$OFF 000000  
          __CFG_WRT2$OFF 000000      ___lmul@multiplicand 0005            __CFG_WRT3$OFF 000000  
         __CFG_EBTR0$OFF 000000           __CFG_FCMEN$OFF 000000           __CFG_EBTR1$OFF 000000  
         __CFG_EBTR2$OFF 000000           __CFG_EBTR3$OFF 000000            __CFG_WRTB$OFF 000000  
          __CFG_WRTC$OFF 000000            __CFG_WRTD$OFF 000000           __CFG_EBTRB$OFF 000000  
        __end_of_keyfind 1AC6          __end_of_isdigit 26E0             main@operator 0082  
                  atol@a 0016                    atol@c 001A                    atol@s 000D  
                  _ultoa 1ECE                    tablat 000FF5                    utoa@c 0010  
                  utoa@v 000E                    status 000FD8      __size_of_LCD_String 005E  
         __CFG_ICPRT$OFF 000000           ?_LCD_String_xy 000B           __CFG_MCLRE$OFF 000000  
        __initialization 26E0             __end_of_atol 1DB4             __end_of_main 14BE  
           __end_of_itoa 2636             __end_of_ltoa 24CA             __end_of_utoa 21AA  
                 ??_atol 0011                   ??_main 0047                   ??_itoa 0017  
                 ??_ltoa 0023                   ??_utoa 000E        __end_of_LCD_Clear 2758  
          __activetblptr 000002          ??_display_float 0025         ___llmod@dividend 0001  
                 ?_ultoa 000E         LCD_String_xy@msg 000C         LCD_String_xy@pos 000B  
       LCD_String_xy@row 000E                ??_MSdelay 0003                   _OSCCON 000FD3  
       __end_of___xxtofl 1C7A           __CFG_XINST$OFF 000000                   ___lmul 234A  
              ??___fladd 0009                ??___fldiv 0021           __CFG_STVREN$ON 000000  
              ??___flmul 0009                ??___flsub 0021                ??___fltol 0005  
              ??___lldiv 0009                ??___llmod 0009                ??___lwdiv 0005  
              ??___lwmod 0005                   _keypad 0047                   _memset 2676  
                 _rowloc 0058     __size_of_LCD_Command 004C             __pdataCOMRAM 0047  
              ??_keyfind 0009                ??_isdigit 0001             __mediumconst 0000  
                 tblptrh 000FF7                   tblptrl 000FF6                   tblptru 000FF8  
                 ultoa@c 001A                   ultoa@v 0016             ___xxtofl@arg 0015  
           ___xxtofl@exp 0014             ___xxtofl@val 000B                ?_LCD_Char 0001  
             __accesstop 0060  __end_of__initialization 2706                ?_LCD_Init 0001  
        __CFG_PBADEN$OFF 000000          ??_LCD_String_xy 000E            ___rparam_used 000001  
             ___fltol@f1 0001           __pcstackCOMRAM 0001            __end_of_ultoa 1FE2  
           ??_LCD_String 000B                  ??_ultoa 0016               ??_LCD_Char 0007  
             ??_LCD_Init 0009       __end_of_LCD_String 2476           main@div_result 007E  
                ?___lmul 0001                  ?_memset 0001           ___lmul@product 0009  
              ?___xxtofl 000B                  _MSdelay 2562          __CFG_VREGEN$OFF 000000  
          LCD_String@msg 0009                  __Hparam 0000                  __Lparam 0000  
                ___fladd 081E                  ___fldiv 14BE          __size_of___lmul 006A  
                ___flmul 0CDE                  ___flsub 25AC                  ___fltol 1FE2  
                ___lldiv 21AA                  ___llmod 224E                  ___lwdiv 22D6  
                ___lwmod 23B4             __psmallconst 0800                  __pcinit 26E0  
        __size_of_memset 0038                  __ramtop 0800                  __ptext0 1108  
                __ptext1 2676                  __ptext2 2476                  __ptext3 1ECE  
                __ptext4 224E                  __ptext5 21AA                  __ptext6 1858  
                __ptext7 1DB4                  __ptext8 25F2                  __ptext9 20E8  
                _col_loc 0059                  _keyfind 1858                  _isdigit 26AE  
             ??___xxtofl 000F                _LCD_Clear 2750                  main@op1 0060  
                main@op2 006A     end_of_initialization 2706                  itoa@buf 0011  
                memset@c 0003                  itoa@val 0013                  memset@n 0005  
                memset@p 0007           LCD_Command@cmd 0008            __Lmediumconst 0000  
                ltoa@buf 001B                  ltoa@val 001D          ___lldiv@divisor 0005  
        ___lldiv@counter 000D                  postdec1 000FE5                  postinc0 000FEE  
                utoa@buf 0008                  utoa@val 000A              ___fladd@grs 0010  
          ___xxtofl@sign 0013               ?_LCD_Clear 0001              ___fldiv@grs 002C  
            ___fldiv@rem 0025    __end_of_display_float 1ECE              ___flmul@grs 000E  
      __size_of_LCD_Char 004C               main@result 0086        __size_of_LCD_Init 0030  
          ??_LCD_Command 0007           __end_of___lmul 23B4            __pidataCOMRAM 2740  
         __end_of_memset 26AE      start_initialization 26E0          ___llmod@divisor 0005  
        ___llmod@counter 0009    __end_of_LCD_String_xy 2676        main@result_output 0074  
               ??___lmul 0009         __CFG_LPT1OSC$OFF 000000                 ??_memset 0007  
              ___fladd@a 0005                ___fladd@b 0001                ___fldiv@a 001D  
              ___fldiv@b 0019      __end_of_LCD_Command 2562                ___flmul@a 0005  
              ___flmul@b 0001              __pbssCOMRAM 0057                ___flsub@a 001D  
              ___flsub@b 0019            __pcstackBANK0 0060              ??_LCD_Clear 0009  
      __size_of___xxtofl 01B4                 ?_MSdelay 0001         ___lwdiv@dividend 0001  
               ?___fladd 0001                 ?___fldiv 0019                 ?___flmul 0001  
               ?___flsub 0019                 ?___fltol 0001                 ?___lldiv 0001  
               ?___llmod 0001                 ?___lwdiv 0001                 ?___lwmod 0001  
            __smallconst 0800                 ?_keyfind 0001                 ?_isdigit 0001  
       ___lwdiv@quotient 0005    LCD_String_xy@location 000F           __size_of_ultoa 0114  
               MSdelay@i 0003                 MSdelay@j 0005        display_float@temp 0043  
               _LCD_Char 24CA                 _LCD_Init 2710         __CFG_WDTPS$32768 000000  
   display_float@output1 0034              _LCD_Command 2516                main@index 0084  
        main@key_pressed 0092        ___lmul@multiplier 0001                copy_data0 26F4  
       __size_of_MSdelay 004A                 __Hrparam 0000  display_float@div_result 0021  
               __Lrparam 0000         __size_of___fladd 04C0         __size_of___fldiv 039A  
       __size_of___flmul 042A         __size_of___flsub 0046         __size_of___fltol 0106  
       __size_of___lldiv 00A4         __size_of___llmod 0088         __size_of___lwdiv 0074  
       __size_of___lwmod 0064              _isdigit$609 0002                 ___xxtofl 1AC6  
       __size_of_keyfind 026E         __size_of_isdigit 0032          ___lwdiv@divisor 0003  
        ___lwdiv@counter 0007                 __ptext10 23B4                 __ptext11 22D6  
               __ptext20 14BE                 __ptext12 1AC6                 __ptext21 2636  
               __ptext13 1FE2                 __ptext22 2418                 __ptext14 25AC  
               __ptext23 24CA                 __ptext15 081E                 __ptext24 2710  
               __ptext16 0CDE                 __ptext25 2750                 __ptext17 1C7A  
               __ptext26 2516                 __ptext18 26AE                 __ptext27 2562  
               __ptext19 234A            __size_of_atol 013A            __size_of_main 03B6  
          __size_of_itoa 0044            __size_of_ltoa 0054            __size_of_utoa 00C2  
             MSdelay@val 0001                 _temp_col 0057      display_float@output 0025  
               atol@sign 0015                 main@flag 0083   __size_of_display_float 011A  
             _LCD_String 2418    __CFG_CPUDIV$OSC1_PLL2 000000                 itoa@base 0015  
               isdigit@c 0003                 memset@p1 0001                ultoa@base 0014  
               ltoa@base 0021         ___lwmod@dividend 0001         ___lldiv@dividend 0001  
               utoa@base 000C                 ultoa@buf 000E                 ultoa@val 0010  
    __CFG_FOSC$INTOSC_EC 000000         ___lldiv@quotient 0009          ___lwmod@divisor 0003  
        ___lwmod@counter 0005   __size_of_LCD_String_xy 0040            ___fladd@signs 000D  
          _display_float 1DB4             ___fladd@aexp 000E             ___fladd@bexp 000F  
